
uart.elf:     file format elf64-littleaarch64


Disassembly of section .text:

0000000020000000 <__start>:
    20000000:	140005e2 	b	20001788 <_boot>
	...
    20000080:	14000000 	b	20000080 <__start+0x80>
	...
    20000100:	14000000 	b	20000100 <__start+0x100>
	...
    20000180:	14000000 	b	20000180 <__start+0x180>
	...
    20000200:	14000000 	b	20000200 <__start+0x200>
	...
    20000280:	14000000 	b	20000280 <__start+0x280>
	...
    20000300:	14000000 	b	20000300 <__start+0x300>
	...
    20000380:	14000000 	b	20000380 <__start+0x380>
	...
    20000400:	14000000 	b	20000400 <__start+0x400>
	...
    20000480:	14000000 	b	20000480 <__start+0x480>
	...
    20000500:	14000000 	b	20000500 <__start+0x500>
	...
    20000580:	14000000 	b	20000580 <__start+0x580>
	...
    20000600:	14000000 	b	20000600 <__start+0x600>
	...
    20000680:	14000000 	b	20000680 <__start+0x680>
	...
    20000700:	14000000 	b	20000700 <__start+0x700>
	...
    20000780:	14000000 	b	20000780 <__start+0x780>
	...

0000000020001000 <_freertos_vector_table>:
    20001000:	14000680 	b	20002a00 <FreeRTOS_SWI_Handler>
	...
    20001080:	14000720 	b	20002d00 <FreeRTOS_IRQ_Handler>
	...
    20001100:	14000000 	b	20001100 <_freertos_vector_table+0x100>
	...
    20001180:	14000000 	b	20001180 <_freertos_vector_table+0x180>
	...
    20001200:	14000600 	b	20002a00 <FreeRTOS_SWI_Handler>
	...
    20001280:	140006a0 	b	20002d00 <FreeRTOS_IRQ_Handler>
	...
    20001300:	14000000 	b	20001300 <_freertos_vector_table+0x300>
	...
    20001380:	14000000 	b	20001380 <_freertos_vector_table+0x380>
	...
    20001400:	14000000 	b	20001400 <_freertos_vector_table+0x400>
	...
    20001480:	14000000 	b	20001480 <_freertos_vector_table+0x480>
	...
    20001500:	14000000 	b	20001500 <_freertos_vector_table+0x500>
	...
    20001580:	14000000 	b	20001580 <_freertos_vector_table+0x580>
	...
    20001600:	14000000 	b	20001600 <_freertos_vector_table+0x600>
	...
    20001680:	14000000 	b	20001680 <_freertos_vector_table+0x680>
	...
    20001700:	14000000 	b	20001700 <_freertos_vector_table+0x700>
	...
    20001780:	14000000 	b	20001780 <_freertos_vector_table+0x780>
    20001784:	00000000 	udf	#0

0000000020001788 <_boot>:
    20001788:	d53800a1 	mrs	x1, mpidr_el1
    2000178c:	92400421 	and	x1, x1, #0x3
    20001790:	f1000c3f 	cmp	x1, #0x3
    20001794:	54000381 	b.ne	20001804 <kick_core3>  // b.any

0000000020001798 <start_el2>:
    20001798:	d2b00000 	mov	x0, #0x80000000            	// #2147483648
    2000179c:	b27f0000 	orr	x0, x0, #0x2
    200017a0:	d51c1100 	msr	hcr_el2, x0
    200017a4:	d5033fdf 	isb
    200017a8:	d28078a2 	mov	x2, #0x3c5                 	// #965
    200017ac:	d51c4002 	msr	spsr_el2, x2
    200017b0:	d5033fdf 	isb
    200017b4:	10000082 	adr	x2, 200017c4 <start_el1>
    200017b8:	d51c4022 	msr	elr_el2, x2
    200017bc:	d5033fdf 	isb
    200017c0:	d69f03e0 	eret

00000000200017c4 <start_el1>:
    200017c4:	d5381041 	mrs	x1, cpacr_el1
    200017c8:	d2a00600 	mov	x0, #0x300000              	// #3145728
    200017cc:	aa000020 	orr	x0, x1, x0
    200017d0:	d5181040 	msr	cpacr_el1, x0
    200017d4:	f0002fe1 	adrp	x1, 20600000 <l1ptd>
    200017d8:	9100003f 	mov	sp, x1
    200017dc:	58000260 	ldr	x0, 20001828 <kick_core3+0x24>
    200017e0:	d63f0000 	blr	x0
    200017e4:	58000261 	ldr	x1, 20001830 <kick_core3+0x2c>
    200017e8:	180001c2 	ldr	w2, 20001820 <kick_core3+0x1c>
    200017ec:	34000082 	cbz	w2, 200017fc <start_el1+0x38>
    200017f0:	f800843f 	str	xzr, [x1], #8
    200017f4:	51000442 	sub	w2, w2, #0x1
    200017f8:	35ffffa2 	cbnz	w2, 200017ec <start_el1+0x28>
    200017fc:	94001329 	bl	200064a0 <main>
    20001800:	d65f03c0 	ret

0000000020001804 <kick_core3>:
    20001804:	d2801e01 	mov	x1, #0xf0                  	// #240
    20001808:	58000182 	ldr	x2, 20001838 <kick_core3+0x34>
    2000180c:	f9000022 	str	x2, [x1]
    20001810:	d503209f 	sev
    20001814:	d503205f 	wfe
    20001818:	d2800000 	mov	x0, #0x0                   	// #0
    2000181c:	d65f03c0 	ret
    20001820:	00004000 	.word	0x00004000
    20001824:	00000000 	udf	#0
    20001828:	20002180 	.word	0x20002180
    2000182c:	00000000 	.word	0x00000000
    20001830:	20008000 	.word	0x20008000
    20001834:	00000000 	.word	0x00000000
    20001838:	20000000 	.word	0x20000000
    2000183c:	00000000 	.word	0x00000000

0000000020001840 <enable_cntv>:
    20001840:	52800020 	mov	w0, #0x1                   	// #1
    20001844:	d51be320 	msr	cntv_ctl_el0, x0
    20001848:	d65f03c0 	ret
    2000184c:	d503201f 	nop

0000000020001850 <write_cntv_tval>:
    20001850:	d51be300 	msr	cntv_tval_el0, x0
    20001854:	d65f03c0 	ret
    20001858:	d503201f 	nop
    2000185c:	d503201f 	nop

0000000020001860 <read_cntfrq>:
    20001860:	d53be000 	mrs	x0, cntfrq_el0
    20001864:	d65f03c0 	ret
    20001868:	d503201f 	nop
    2000186c:	d503201f 	nop

0000000020001870 <init_timer>:
    20001870:	a9bf7bfd 	stp	x29, x30, [sp, #-16]!
    20001874:	910003fd 	mov	x29, sp
    20001878:	97fffffa 	bl	20001860 <read_cntfrq>
    2000187c:	f0000022 	adrp	x2, 20008000 <timer_tick>
    20001880:	91000043 	add	x3, x2, #0x0
    20001884:	b9000460 	str	w0, [x3, #4]
    20001888:	a8c17bfd 	ldp	x29, x30, [sp], #16
    2000188c:	b9000040 	str	w0, [x2]
    20001890:	17fffff0 	b	20001850 <write_cntv_tval>
    20001894:	d503201f 	nop
    20001898:	d503201f 	nop
    2000189c:	d503201f 	nop

00000000200018a0 <timer_set_tick_rate_hz>:
    200018a0:	f0000022 	adrp	x2, 20008000 <timer_tick>
    200018a4:	91000041 	add	x1, x2, #0x0
    200018a8:	b9400421 	ldr	w1, [x1, #4]
    200018ac:	1ac00820 	udiv	w0, w1, w0
    200018b0:	b9000040 	str	w0, [x2]
    200018b4:	17ffffe7 	b	20001850 <write_cntv_tval>
    200018b8:	d503201f 	nop
    200018bc:	d503201f 	nop

00000000200018c0 <vConfigureTickInterrupt>:
    200018c0:	a9bf7bfd 	stp	x29, x30, [sp, #-16]!
    200018c4:	910003fd 	mov	x29, sp
    200018c8:	97ffffea 	bl	20001870 <init_timer>
    200018cc:	52807d00 	mov	w0, #0x3e8                 	// #1000
    200018d0:	97fffff4 	bl	200018a0 <timer_set_tick_rate_hz>
    200018d4:	97ffffdb 	bl	20001840 <enable_cntv>
    200018d8:	d0000023 	adrp	x3, 20007000 <pt_config>
    200018dc:	a8c17bfd 	ldp	x29, x30, [sp], #16
    200018e0:	52800102 	mov	w2, #0x8                   	// #8
    200018e4:	52801401 	mov	w1, #0xa0                  	// #160
    200018e8:	52800360 	mov	w0, #0x1b                  	// #27
    200018ec:	f9407063 	ldr	x3, [x3, #224]
    200018f0:	14000024 	b	20001980 <isr_register>
    200018f4:	d503201f 	nop
    200018f8:	d503201f 	nop
    200018fc:	d503201f 	nop

0000000020001900 <vClearTickInterrupt>:
    20001900:	f0000020 	adrp	x0, 20008000 <timer_tick>
    20001904:	b9400000 	ldr	w0, [x0]
    20001908:	17ffffd2 	b	20001850 <write_cntv_tval>
    2000190c:	d503201f 	nop

0000000020001910 <vApplicationIRQHandler>:
    20001910:	a9be7bfd 	stp	x29, x30, [sp, #-32]!
    20001914:	910003fd 	mov	x29, sp
    20001918:	721c141f 	tst	w0, #0x3f0
    2000191c:	f9000bf3 	str	x19, [sp, #16]
    20001920:	12002413 	and	w19, w0, #0x3ff
    20001924:	540000a1 	b.ne	20001938 <vApplicationIRQHandler+0x28>  // b.any
    20001928:	32160660 	orr	w0, w19, #0xc00
    2000192c:	f9400bf3 	ldr	x19, [sp, #16]
    20001930:	a8c27bfd 	ldp	x29, x30, [sp], #32
    20001934:	14000047 	b	20001a50 <eoi_notify>
    20001938:	2a1303e0 	mov	w0, w19
    2000193c:	94000045 	bl	20001a50 <eoi_notify>
    20001940:	71037e7f 	cmp	w19, #0xdf
    20001944:	54000128 	b.hi	20001968 <vApplicationIRQHandler+0x58>  // b.pmore
    20001948:	d0000020 	adrp	x0, 20007000 <pt_config>
    2000194c:	f9406000 	ldr	x0, [x0, #192]
    20001950:	f8737800 	ldr	x0, [x0, x19, lsl #3]
    20001954:	b40000a0 	cbz	x0, 20001968 <vApplicationIRQHandler+0x58>
    20001958:	f9400bf3 	ldr	x19, [sp, #16]
    2000195c:	aa0003f0 	mov	x16, x0
    20001960:	a8c27bfd 	ldp	x29, x30, [sp], #32
    20001964:	d61f0200 	br	x16
    20001968:	f9400bf3 	ldr	x19, [sp, #16]
    2000196c:	a8c27bfd 	ldp	x29, x30, [sp], #32
    20001970:	d65f03c0 	ret
	...

0000000020001980 <isr_register>:
    20001980:	7103fc1f 	cmp	w0, #0xff
    20001984:	2a0003e4 	mov	w4, w0
    20001988:	54000528 	b.hi	20001a2c <isr_register+0xac>  // b.pmore
    2000198c:	7103fc3f 	cmp	w1, #0xff
    20001990:	54000528 	b.hi	20001a34 <isr_register+0xb4>  // b.pmore
    20001994:	7103fc5f 	cmp	w2, #0xff
    20001998:	54000528 	b.hi	20001a3c <isr_register+0xbc>  // b.pmore
    2000199c:	b4000543 	cbz	x3, 20001a44 <isr_register+0xc4>
    200019a0:	53057c05 	lsr	w5, w0, #5
    200019a4:	52822000 	mov	w0, #0x1100                	// #4352
    200019a8:	72bff080 	movk	w0, #0xff84, lsl #16
    200019ac:	52800029 	mov	w9, #0x1                   	// #1
    200019b0:	0b050805 	add	w5, w0, w5, lsl #2
    200019b4:	1ac42129 	lsl	w9, w9, w4
    200019b8:	121e7487 	and	w7, w4, #0xfffffffc
    200019bc:	d2828006 	mov	x6, #0x1400                	// #5120
    200019c0:	f2bff086 	movk	x6, #0xff84, lsl #16
    200019c4:	b94000a8 	ldr	w8, [x5]
    200019c8:	531d048b 	ubfiz	w11, w4, #3, #2
    200019cc:	52801fe0 	mov	w0, #0xff                  	// #255
    200019d0:	1acb2000 	lsl	w0, w0, w11
    200019d4:	1acb2021 	lsl	w1, w1, w11
    200019d8:	2a2003ea 	mvn	w10, w0
    200019dc:	71007c9f 	cmp	w4, #0x1f
    200019e0:	2a090108 	orr	w8, w8, w9
    200019e4:	b90000a8 	str	w8, [x5]
    200019e8:	b86748c5 	ldr	w5, [x6, w7, uxtw]
    200019ec:	0a2000a0 	bic	w0, w5, w0
    200019f0:	2a010000 	orr	w0, w0, w1
    200019f4:	b82748c0 	str	w0, [x6, w7, uxtw]
    200019f8:	540000e9 	b.ls	20001a14 <isr_register+0x94>  // b.plast
    200019fc:	911000c6 	add	x6, x6, #0x400
    20001a00:	1acb2042 	lsl	w2, w2, w11
    20001a04:	b86748c0 	ldr	w0, [x6, w7, uxtw]
    20001a08:	0a00014a 	and	w10, w10, w0
    20001a0c:	2a02014a 	orr	w10, w10, w2
    20001a10:	b82748ca 	str	w10, [x6, w7, uxtw]
    20001a14:	d5033fdf 	isb
    20001a18:	d0000021 	adrp	x1, 20007000 <pt_config>
    20001a1c:	52800000 	mov	w0, #0x0                   	// #0
    20001a20:	f9406021 	ldr	x1, [x1, #192]
    20001a24:	f8245823 	str	x3, [x1, w4, uxtw #3]
    20001a28:	d65f03c0 	ret
    20001a2c:	12800000 	mov	w0, #0xffffffff            	// #-1
    20001a30:	d65f03c0 	ret
    20001a34:	12800020 	mov	w0, #0xfffffffe            	// #-2
    20001a38:	d65f03c0 	ret
    20001a3c:	12800040 	mov	w0, #0xfffffffd            	// #-3
    20001a40:	d65f03c0 	ret
    20001a44:	12800060 	mov	w0, #0xfffffffc            	// #-4
    20001a48:	d65f03c0 	ret
    20001a4c:	d503201f 	nop

0000000020001a50 <eoi_notify>:
    20001a50:	d2840201 	mov	x1, #0x2010                	// #8208
    20001a54:	f2bff081 	movk	x1, #0xff84, lsl #16
    20001a58:	b9000020 	str	w0, [x1]
    20001a5c:	d5033fdf 	isb
    20001a60:	d65f03c0 	ret
    20001a64:	d503201f 	nop
    20001a68:	d503201f 	nop
    20001a6c:	d503201f 	nop

0000000020001a70 <wait_gic_init>:
    20001a70:	d2820001 	mov	x1, #0x1000                	// #4096
    20001a74:	f2bff081 	movk	x1, #0xff84, lsl #16
    20001a78:	b9400020 	ldr	w0, [x1]
    20001a7c:	7100041f 	cmp	w0, #0x1
    20001a80:	54ffffc0 	b.eq	20001a78 <wait_gic_init+0x8>  // b.none
    20001a84:	d2820001 	mov	x1, #0x1000                	// #4096
    20001a88:	f2bff081 	movk	x1, #0xff84, lsl #16
    20001a8c:	d503201f 	nop
    20001a90:	b9400020 	ldr	w0, [x1]
    20001a94:	34ffffe0 	cbz	w0, 20001a90 <wait_gic_init+0x20>
    20001a98:	d65f03c0 	ret
    20001a9c:	00000000 	udf	#0

0000000020001aa0 <prvStdioGatekeeperTask>:
    20001aa0:	a9bc7bfd 	stp	x29, x30, [sp, #-64]!
    20001aa4:	d0000020 	adrp	x0, 20007000 <pt_config>
    20001aa8:	910003fd 	mov	x29, sp
    20001aac:	f90013f5 	str	x21, [sp, #32]
    20001ab0:	f9405c15 	ldr	x21, [x0, #184]
    20001ab4:	a90153f3 	stp	x19, x20, [sp, #16]
    20001ab8:	b0000033 	adrp	x19, 20006000 <prvTimerTask+0x200>
    20001abc:	910be273 	add	x19, x19, #0x2f8
    20001ac0:	9100e3f4 	add	x20, sp, #0x38
    20001ac4:	d503201f 	nop
    20001ac8:	92800002 	mov	x2, #0xffffffffffffffff    	// #-1
    20001acc:	aa1403e1 	mov	x1, x20
    20001ad0:	f94002a0 	ldr	x0, [x21]
    20001ad4:	94000793 	bl	20003920 <xQueueReceive>
    20001ad8:	aa1303e0 	mov	x0, x19
    20001adc:	94000085 	bl	20001cf0 <uart_puts>
    20001ae0:	f9401fe0 	ldr	x0, [sp, #56]
    20001ae4:	94000083 	bl	20001cf0 <uart_puts>
    20001ae8:	aa1303e0 	mov	x0, x19
    20001aec:	94000081 	bl	20001cf0 <uart_puts>
    20001af0:	17fffff6 	b	20001ac8 <prvStdioGatekeeperTask+0x28>
    20001af4:	d503201f 	nop
    20001af8:	d503201f 	nop
    20001afc:	d503201f 	nop

0000000020001b00 <prvPrintTask>:
    20001b00:	a9be7bfd 	stp	x29, x30, [sp, #-32]!
    20001b04:	d0000021 	adrp	x1, 20007000 <pt_config>
    20001b08:	910003fd 	mov	x29, sp
    20001b0c:	a90153f3 	stp	x19, x20, [sp, #16]
    20001b10:	f9405c34 	ldr	x20, [x1, #184]
    20001b14:	d0000021 	adrp	x1, 20007000 <pt_config>
    20001b18:	91048021 	add	x1, x1, #0x120
    20001b1c:	8b20cc33 	add	x19, x1, w0, sxtw #3
    20001b20:	f9400280 	ldr	x0, [x20]
    20001b24:	d2800003 	mov	x3, #0x0                   	// #0
    20001b28:	d2800002 	mov	x2, #0x0                   	// #0
    20001b2c:	aa1303e1 	mov	x1, x19
    20001b30:	9400069c 	bl	200035a0 <xQueueGenericSend>
    20001b34:	d2800400 	mov	x0, #0x20                  	// #32
    20001b38:	94000c62 	bl	20004cc0 <vTaskDelay>
    20001b3c:	17fffff9 	b	20001b20 <prvPrintTask+0x20>

0000000020001b40 <vApplicationIdleHook>:
    20001b40:	d65f03c0 	ret
    20001b44:	d503201f 	nop
    20001b48:	d503201f 	nop
    20001b4c:	d503201f 	nop

0000000020001b50 <vApplicationTickHook>:
    20001b50:	a9be7bfd 	stp	x29, x30, [sp, #-32]!
    20001b54:	910003fd 	mov	x29, sp
    20001b58:	f9000bf3 	str	x19, [sp, #16]
    20001b5c:	f0000033 	adrp	x19, 20008000 <timer_tick>
    20001b60:	b9470a60 	ldr	w0, [x19, #1800]
    20001b64:	11000400 	add	w0, w0, #0x1
    20001b68:	71031c1f 	cmp	w0, #0xc7
    20001b6c:	b9070a60 	str	w0, [x19, #1800]
    20001b70:	5400008c 	b.gt	20001b80 <vApplicationTickHook+0x30>
    20001b74:	f9400bf3 	ldr	x19, [sp, #16]
    20001b78:	a8c27bfd 	ldp	x29, x30, [sp], #32
    20001b7c:	d65f03c0 	ret
    20001b80:	d0000020 	adrp	x0, 20007000 <pt_config>
    20001b84:	d0000021 	adrp	x1, 20007000 <pt_config>
    20001b88:	91048021 	add	x1, x1, #0x120
    20001b8c:	f9405c00 	ldr	x0, [x0, #184]
    20001b90:	d2800023 	mov	x3, #0x1                   	// #1
    20001b94:	91004021 	add	x1, x1, #0x10
    20001b98:	d2800002 	mov	x2, #0x0                   	// #0
    20001b9c:	f9400000 	ldr	x0, [x0]
    20001ba0:	94000700 	bl	200037a0 <xQueueGenericSendFromISR>
    20001ba4:	b9070a7f 	str	wzr, [x19, #1800]
    20001ba8:	f9400bf3 	ldr	x19, [sp, #16]
    20001bac:	a8c27bfd 	ldp	x29, x30, [sp], #32
    20001bb0:	d65f03c0 	ret
	...

0000000020001bc0 <uart_isr>:
    20001bc0:	d2828300 	mov	x0, #0x1418                	// #5144
    20001bc4:	f2bfc400 	movk	x0, #0xfe20, lsl #16
    20001bc8:	b9400001 	ldr	w1, [x0]
    20001bcc:	36200041 	tbz	w1, #4, 20001bd4 <uart_isr+0x14>
    20001bd0:	d65f03c0 	ret
    20001bd4:	d0000024 	adrp	x4, 20007000 <pt_config>
    20001bd8:	a9be7bfd 	stp	x29, x30, [sp, #-32]!
    20001bdc:	910003fd 	mov	x29, sp
    20001be0:	91007fe1 	add	x1, sp, #0x1f
    20001be4:	d2800003 	mov	x3, #0x0                   	// #0
    20001be8:	d2800002 	mov	x2, #0x0                   	// #0
    20001bec:	b85e8005 	ldur	w5, [x0, #-24]
    20001bf0:	f9406c80 	ldr	x0, [x4, #216]
    20001bf4:	39007fe5 	strb	w5, [sp, #31]
    20001bf8:	f9400000 	ldr	x0, [x0]
    20001bfc:	f9400400 	ldr	x0, [x0, #8]
    20001c00:	940006e8 	bl	200037a0 <xQueueGenericSendFromISR>
    20001c04:	a8c27bfd 	ldp	x29, x30, [sp], #32
    20001c08:	d65f03c0 	ret
    20001c0c:	d503201f 	nop

0000000020001c10 <uart_putchar>:
    20001c10:	a9be7bfd 	stp	x29, x30, [sp, #-32]!
    20001c14:	910003fd 	mov	x29, sp
    20001c18:	92800001 	mov	x1, #0xffffffffffffffff    	// #-1
    20001c1c:	a90153f3 	stp	x19, x20, [sp, #16]
    20001c20:	d0000033 	adrp	x19, 20007000 <pt_config>
    20001c24:	12001c14 	and	w20, w0, #0xff
    20001c28:	f9406e62 	ldr	x2, [x19, #216]
    20001c2c:	f9400040 	ldr	x0, [x2]
    20001c30:	f9400000 	ldr	x0, [x0]
    20001c34:	940007a3 	bl	20003ac0 <xQueueSemaphoreTake>
    20001c38:	d2828301 	mov	x1, #0x1418                	// #5144
    20001c3c:	f2bfc401 	movk	x1, #0xfe20, lsl #16
    20001c40:	b9400020 	ldr	w0, [x1]
    20001c44:	372fffe0 	tbnz	w0, #5, 20001c40 <uart_putchar+0x30>
    20001c48:	b81e8034 	stur	w20, [x1, #-24]
    20001c4c:	d5033fdf 	isb
    20001c50:	f9406e73 	ldr	x19, [x19, #216]
    20001c54:	d2800003 	mov	x3, #0x0                   	// #0
    20001c58:	d2800002 	mov	x2, #0x0                   	// #0
    20001c5c:	d2800001 	mov	x1, #0x0                   	// #0
    20001c60:	f9400260 	ldr	x0, [x19]
    20001c64:	a94153f3 	ldp	x19, x20, [sp, #16]
    20001c68:	a8c27bfd 	ldp	x29, x30, [sp], #32
    20001c6c:	f9400000 	ldr	x0, [x0]
    20001c70:	1400064c 	b	200035a0 <xQueueGenericSend>
    20001c74:	d503201f 	nop
    20001c78:	d503201f 	nop
    20001c7c:	d503201f 	nop

0000000020001c80 <uart_putchar_isr>:
    20001c80:	a9be7bfd 	stp	x29, x30, [sp, #-32]!
    20001c84:	910003fd 	mov	x29, sp
    20001c88:	d2800001 	mov	x1, #0x0                   	// #0
    20001c8c:	d2800002 	mov	x2, #0x0                   	// #0
    20001c90:	a90153f3 	stp	x19, x20, [sp, #16]
    20001c94:	d0000033 	adrp	x19, 20007000 <pt_config>
    20001c98:	12001c14 	and	w20, w0, #0xff
    20001c9c:	f9406e63 	ldr	x3, [x19, #216]
    20001ca0:	f9400060 	ldr	x0, [x3]
    20001ca4:	f9400000 	ldr	x0, [x0]
    20001ca8:	94000862 	bl	20003e30 <xQueueReceiveFromISR>
    20001cac:	d2828301 	mov	x1, #0x1418                	// #5144
    20001cb0:	f2bfc401 	movk	x1, #0xfe20, lsl #16
    20001cb4:	d503201f 	nop
    20001cb8:	b9400020 	ldr	w0, [x1]
    20001cbc:	372fffe0 	tbnz	w0, #5, 20001cb8 <uart_putchar_isr+0x38>
    20001cc0:	b81e8034 	stur	w20, [x1, #-24]
    20001cc4:	d5033fdf 	isb
    20001cc8:	f9406e73 	ldr	x19, [x19, #216]
    20001ccc:	d2800001 	mov	x1, #0x0                   	// #0
    20001cd0:	f9400260 	ldr	x0, [x19]
    20001cd4:	a94153f3 	ldp	x19, x20, [sp, #16]
    20001cd8:	a8c27bfd 	ldp	x29, x30, [sp], #32
    20001cdc:	f9400000 	ldr	x0, [x0]
    20001ce0:	140006e4 	b	20003870 <xQueueGiveFromISR>
    20001ce4:	d503201f 	nop
    20001ce8:	d503201f 	nop
    20001cec:	d503201f 	nop

0000000020001cf0 <uart_puts>:
    20001cf0:	a9be7bfd 	stp	x29, x30, [sp, #-32]!
    20001cf4:	910003fd 	mov	x29, sp
    20001cf8:	f9000bf3 	str	x19, [sp, #16]
    20001cfc:	aa0003f3 	mov	x19, x0
    20001d00:	39400000 	ldrb	w0, [x0]
    20001d04:	340000c0 	cbz	w0, 20001d1c <uart_puts+0x2c>
    20001d08:	91000673 	add	x19, x19, #0x1
    20001d0c:	d503201f 	nop
    20001d10:	97ffffc0 	bl	20001c10 <uart_putchar>
    20001d14:	38401660 	ldrb	w0, [x19], #1
    20001d18:	35ffffc0 	cbnz	w0, 20001d10 <uart_puts+0x20>
    20001d1c:	f9400bf3 	ldr	x19, [sp, #16]
    20001d20:	a8c27bfd 	ldp	x29, x30, [sp], #32
    20001d24:	d65f03c0 	ret
    20001d28:	d503201f 	nop
    20001d2c:	d503201f 	nop

0000000020001d30 <uart_puthex>:
    20001d30:	a9bd7bfd 	stp	x29, x30, [sp, #-48]!
    20001d34:	910003fd 	mov	x29, sp
    20001d38:	a90153f3 	stp	x19, x20, [sp, #16]
    20001d3c:	aa0003f4 	mov	x20, x0
    20001d40:	52800793 	mov	w19, #0x3c                  	// #60
    20001d44:	f90013f5 	str	x21, [sp, #32]
    20001d48:	b0000035 	adrp	x21, 20006000 <prvTimerTask+0x200>
    20001d4c:	911122b5 	add	x21, x21, #0x448
    20001d50:	9ad32681 	lsr	x1, x20, x19
    20001d54:	51001273 	sub	w19, w19, #0x4
    20001d58:	92400c21 	and	x1, x1, #0xf
    20001d5c:	38616aa0 	ldrb	w0, [x21, x1]
    20001d60:	97ffffac 	bl	20001c10 <uart_putchar>
    20001d64:	3100127f 	cmn	w19, #0x4
    20001d68:	54ffff41 	b.ne	20001d50 <uart_puthex+0x20>  // b.any
    20001d6c:	a94153f3 	ldp	x19, x20, [sp, #16]
    20001d70:	f94013f5 	ldr	x21, [sp, #32]
    20001d74:	a8c37bfd 	ldp	x29, x30, [sp], #48
    20001d78:	d65f03c0 	ret
    20001d7c:	d503201f 	nop

0000000020001d80 <uart_read_bytes>:
    20001d80:	a9bd7bfd 	stp	x29, x30, [sp, #-48]!
    20001d84:	d0000023 	adrp	x3, 20007000 <pt_config>
    20001d88:	910003fd 	mov	x29, sp
    20001d8c:	a90153f3 	stp	x19, x20, [sp, #16]
    20001d90:	aa0003f3 	mov	x19, x0
    20001d94:	f9406c74 	ldr	x20, [x3, #216]
    20001d98:	a9025bf5 	stp	x21, x22, [sp, #32]
    20001d9c:	2a0103f6 	mov	w22, w1
    20001da0:	f9400280 	ldr	x0, [x20]
    20001da4:	f9400400 	ldr	x0, [x0, #8]
    20001da8:	94000882 	bl	20003fb0 <uxQueueMessagesWaiting>
    20001dac:	6b0002df 	cmp	w22, w0
    20001db0:	1a8082d6 	csel	w22, w22, w0, hi	// hi = pmore
    20001db4:	34000176 	cbz	w22, 20001de0 <uart_read_bytes+0x60>
    20001db8:	8b364275 	add	x21, x19, w22, uxtw
    20001dbc:	d503201f 	nop
    20001dc0:	f9400280 	ldr	x0, [x20]
    20001dc4:	aa1303e1 	mov	x1, x19
    20001dc8:	92800002 	mov	x2, #0xffffffffffffffff    	// #-1
    20001dcc:	91000673 	add	x19, x19, #0x1
    20001dd0:	f9400400 	ldr	x0, [x0, #8]
    20001dd4:	940006d3 	bl	20003920 <xQueueReceive>
    20001dd8:	eb15027f 	cmp	x19, x21
    20001ddc:	54ffff21 	b.ne	20001dc0 <uart_read_bytes+0x40>  // b.any
    20001de0:	a94153f3 	ldp	x19, x20, [sp, #16]
    20001de4:	2a1603e0 	mov	w0, w22
    20001de8:	a9425bf5 	ldp	x21, x22, [sp, #32]
    20001dec:	a8c37bfd 	ldp	x29, x30, [sp], #48
    20001df0:	d65f03c0 	ret
    20001df4:	d503201f 	nop
    20001df8:	d503201f 	nop
    20001dfc:	d503201f 	nop

0000000020001e00 <uart_init>:
    20001e00:	d2bfc402 	mov	x2, #0xfe200000            	// #4263510016
    20001e04:	a9bd7bfd 	stp	x29, x30, [sp, #-48]!
    20001e08:	910003fd 	mov	x29, sp
    20001e0c:	52800364 	mov	w4, #0x1b                  	// #27
    20001e10:	5280ffec 	mov	w12, #0x7ff                 	// #2047
    20001e14:	5280034b 	mov	w11, #0x1a                  	// #26
    20001e18:	d2828880 	mov	x0, #0x1444                	// #5188
    20001e1c:	f2bfc400 	movk	x0, #0xfe20, lsl #16
    20001e20:	b9400041 	ldr	w1, [x2]
    20001e24:	5280006a 	mov	w10, #0x3                   	// #3
    20001e28:	a90153f3 	stp	x19, x20, [sp, #16]
    20001e2c:	d1007009 	sub	x9, x0, #0x1c
    20001e30:	d1006007 	sub	x7, x0, #0x18
    20001e34:	d1003005 	sub	x5, x0, #0xc
    20001e38:	d1005003 	sub	x3, x0, #0x14
    20001e3c:	52800c08 	mov	w8, #0x60                  	// #96
    20001e40:	52800206 	mov	w6, #0x10                  	// #16
    20001e44:	f90013f5 	str	x21, [sp, #32]
    20001e48:	121a6421 	and	w1, w1, #0xffffffc0
    20001e4c:	2a040021 	orr	w1, w1, w4
    20001e50:	52806024 	mov	w4, #0x301                 	// #769
    20001e54:	b9000041 	str	w1, [x2]
    20001e58:	b940e441 	ldr	w1, [x2, #228]
    20001e5c:	121c6c21 	and	w1, w1, #0xfffffff0
    20001e60:	b900e441 	str	w1, [x2, #228]
    20001e64:	b81e040c 	str	w12, [x0], #-32
    20001e68:	b900000b 	str	w11, [x0]
    20001e6c:	b900012a 	str	w10, [x9]
    20001e70:	b90000e8 	str	w8, [x7]
    20001e74:	b90000a6 	str	w6, [x5]
    20001e78:	b9000064 	str	w4, [x3]
    20001e7c:	d5033fdf 	isb
    20001e80:	d0000034 	adrp	x20, 20007000 <pt_config>
    20001e84:	d2800200 	mov	x0, #0x10                  	// #16
    20001e88:	940010ea 	bl	20006230 <pvPortMalloc>
    20001e8c:	f9406e95 	ldr	x21, [x20, #216]
    20001e90:	aa0003f3 	mov	x19, x0
    20001e94:	52800020 	mov	w0, #0x1                   	// #1
    20001e98:	f90002b3 	str	x19, [x21]
    20001e9c:	9400062d 	bl	20003750 <xQueueCreateMutex>
    20001ea0:	aa0003e3 	mov	x3, x0
    20001ea4:	f94002b5 	ldr	x21, [x21]
    20001ea8:	52800002 	mov	w2, #0x0                   	// #0
    20001eac:	d2800021 	mov	x1, #0x1                   	// #1
    20001eb0:	d2800200 	mov	x0, #0x10                  	// #16
    20001eb4:	f9000263 	str	x3, [x19]
    20001eb8:	94000586 	bl	200034d0 <xQueueGenericCreate>
    20001ebc:	aa0003e4 	mov	x4, x0
    20001ec0:	f9406a83 	ldr	x3, [x20, #208]
    20001ec4:	52800102 	mov	w2, #0x8                   	// #8
    20001ec8:	a94153f3 	ldp	x19, x20, [sp, #16]
    20001ecc:	52801401 	mov	w1, #0xa0                  	// #160
    20001ed0:	52801320 	mov	w0, #0x99                  	// #153
    20001ed4:	f90006a4 	str	x4, [x21, #8]
    20001ed8:	f94013f5 	ldr	x21, [sp, #32]
    20001edc:	a8c37bfd 	ldp	x29, x30, [sp], #48
    20001ee0:	17fffea8 	b	20001980 <isr_register>
	...

0000000020001ef0 <init_pt>:
    20001ef0:	f0002fe0 	adrp	x0, 20600000 <l1ptd>
    20001ef4:	a9bf7bfd 	stp	x29, x30, [sp, #-16]!
    20001ef8:	d2802002 	mov	x2, #0x100                 	// #256
    20001efc:	910003fd 	mov	x29, sp
    20001f00:	52800001 	mov	w1, #0x0                   	// #0
    20001f04:	91000000 	add	x0, x0, #0x0
    20001f08:	940000f6 	bl	200022e0 <memset>
    20001f0c:	b0003000 	adrp	x0, 20602000 <l2pte>
    20001f10:	d2a00042 	mov	x2, #0x20000               	// #131072
    20001f14:	52800001 	mov	w1, #0x0                   	// #0
    20001f18:	91000000 	add	x0, x0, #0x0
    20001f1c:	940000f1 	bl	200022e0 <memset>
    20001f20:	90003000 	adrp	x0, 20601000 <l1ptd_dummy>
    20001f24:	91040000 	add	x0, x0, #0x100
    20001f28:	a8c17bfd 	ldp	x29, x30, [sp], #16
    20001f2c:	d1040000 	sub	x0, x0, #0x100
    20001f30:	d2802002 	mov	x2, #0x100                 	// #256
    20001f34:	52800001 	mov	w1, #0x0                   	// #0
    20001f38:	140000ea 	b	200022e0 <memset>
    20001f3c:	d503201f 	nop

0000000020001f40 <init_regs>:
    20001f40:	a9be7bfd 	stp	x29, x30, [sp, #-32]!
    20001f44:	910003fd 	mov	x29, sp
    20001f48:	f9000fff 	str	xzr, [sp, #24]
    20001f4c:	f9400fe0 	ldr	x0, [sp, #24]
    20001f50:	d5181000 	msr	sctlr_el1, x0
    20001f54:	d5033fdf 	isb
    20001f58:	d508871f 	tlbi	vmalle1
    20001f5c:	d508751f 	ic	iallu
    20001f60:	940000c2 	bl	20002268 <invalidate_dcache_all>
    20001f64:	d5033f9f 	dsb	sy
    20001f68:	d5033fdf 	isb
    20001f6c:	d2888000 	mov	x0, #0x4400                	// #17408
    20001f70:	f2bff760 	movk	x0, #0xffbb, lsl #16
    20001f74:	f9000fe0 	str	x0, [sp, #24]
    20001f78:	f9400fe0 	ldr	x0, [sp, #24]
    20001f7c:	d518a200 	msr	mair_el1, x0
    20001f80:	d5033fdf 	isb
    20001f84:	f0002fe0 	adrp	x0, 20600000 <l1ptd>
    20001f88:	91000000 	add	x0, x0, #0x0
    20001f8c:	d5182000 	msr	ttbr0_el1, x0
    20001f90:	90003000 	adrp	x0, 20601000 <l1ptd_dummy>
    20001f94:	91040000 	add	x0, x0, #0x100
    20001f98:	d1040000 	sub	x0, x0, #0x100
    20001f9c:	d5182020 	msr	ttbr1_el1, x0
    20001fa0:	d5033fdf 	isb
    20001fa4:	d284a3a0 	mov	x0, #0x251d                	// #9501
    20001fa8:	f2a4b3a0 	movk	x0, #0x259d, lsl #16
    20001fac:	f2c00e20 	movk	x0, #0x71, lsl #32
    20001fb0:	f9000fe0 	str	x0, [sp, #24]
    20001fb4:	f9400fe0 	ldr	x0, [sp, #24]
    20001fb8:	d5182040 	msr	tcr_el1, x0
    20001fbc:	d5033fdf 	isb
    20001fc0:	a8c27bfd 	ldp	x29, x30, [sp], #32
    20001fc4:	d65f03c0 	ret
    20001fc8:	d503201f 	nop
    20001fcc:	d503201f 	nop

0000000020001fd0 <set_pt>:
    20001fd0:	d2a80003 	mov	x3, #0x40000000            	// #1073741824
    20001fd4:	b000300a 	adrp	x10, 20602000 <l2pte>
    20001fd8:	91000146 	add	x6, x10, #0x0
    20001fdc:	f0002feb 	adrp	x11, 20600000 <l1ptd>
    20001fe0:	91000167 	add	x7, x11, #0x0
    20001fe4:	d10083ff 	sub	sp, sp, #0x20
    20001fe8:	aa0003e9 	mov	x9, x0
    20001fec:	aa0303e8 	mov	x8, x3
    20001ff0:	d2800005 	mov	x5, #0x0                   	// #0
    20001ff4:	d280c024 	mov	x4, #0x601                 	// #1537
    20001ff8:	927454c2 	and	x2, x6, #0x3fffff000
    20001ffc:	d36284a0 	lsl	x0, x5, #30
    20002000:	b2400442 	orr	x2, x2, #0x3
    20002004:	aa0603e1 	mov	x1, x6
    20002008:	f82578e2 	str	x2, [x7, x5, lsl #3]
    2000200c:	d503201f 	nop
    20002010:	aa040002 	orr	x2, x0, x4
    20002014:	91480000 	add	x0, x0, #0x200, lsl #12
    20002018:	eb00007f 	cmp	x3, x0
    2000201c:	f9000fe2 	str	x2, [sp, #24]
    20002020:	f9400fe2 	ldr	x2, [sp, #24]
    20002024:	f8008422 	str	x2, [x1], #8
    20002028:	54ffff41 	b.ne	20002010 <set_pt+0x40>  // b.any
    2000202c:	910004a5 	add	x5, x5, #0x1
    20002030:	914004c6 	add	x6, x6, #0x1, lsl #12
    20002034:	f10080bf 	cmp	x5, #0x20
    20002038:	8b080063 	add	x3, x3, x8
    2000203c:	54fffde1 	b.ne	20001ff8 <set_pt+0x28>  // b.any
    20002040:	aa0903e3 	mov	x3, x9
    20002044:	91000147 	add	x7, x10, #0x0
    20002048:	91000168 	add	x8, x11, #0x0
    2000204c:	9102812a 	add	x10, x9, #0xa0
    20002050:	52808029 	mov	w9, #0x401                 	// #1025
    20002054:	f9400061 	ldr	x1, [x3]
    20002058:	d35efc21 	lsr	x1, x1, #30
    2000205c:	8b0130e0 	add	x0, x7, x1, lsl #12
    20002060:	92745400 	and	x0, x0, #0x3fffff000
    20002064:	b2400400 	orr	x0, x0, #0x3
    20002068:	f8217900 	str	x0, [x8, x1, lsl #3]
    2000206c:	a9400061 	ldp	x1, x0, [x3]
    20002070:	d355fc21 	lsr	x1, x1, #21
    20002074:	d355fc00 	lsr	x0, x0, #21
    20002078:	f90007e1 	str	x1, [sp, #8]
    2000207c:	f9000be0 	str	x0, [sp, #16]
    20002080:	f9400be0 	ldr	x0, [sp, #16]
    20002084:	b4000360 	cbz	x0, 200020f0 <set_pt+0x120>
    20002088:	39406860 	ldrb	w0, [x3, #26]
    2000208c:	d2800002 	mov	x2, #0x0                   	// #0
    20002090:	79403066 	ldrh	w6, [x3, #24]
    20002094:	39406c65 	ldrb	w5, [x3, #27]
    20002098:	531a6400 	lsl	w0, w0, #6
    2000209c:	2a062006 	orr	w6, w0, w6, lsl #8
    200020a0:	2a050925 	orr	w5, w9, w5, lsl #2
    200020a4:	93407cc6 	sxtw	x6, w6
    200020a8:	93407ca5 	sxtw	x5, w5
    200020ac:	d503201f 	nop
    200020b0:	f94007e1 	ldr	x1, [sp, #8]
    200020b4:	f9400860 	ldr	x0, [x3, #16]
    200020b8:	8b020021 	add	x1, x1, x2
    200020bc:	d36ba821 	lsl	x1, x1, #21
    200020c0:	aa00d420 	orr	x0, x1, x0, lsl #53
    200020c4:	aa060000 	orr	x0, x0, x6
    200020c8:	aa050000 	orr	x0, x0, x5
    200020cc:	f9000fe0 	str	x0, [sp, #24]
    200020d0:	f94007e0 	ldr	x0, [sp, #8]
    200020d4:	f9400fe4 	ldr	x4, [sp, #24]
    200020d8:	f9400be1 	ldr	x1, [sp, #16]
    200020dc:	8b020000 	add	x0, x0, x2
    200020e0:	91000442 	add	x2, x2, #0x1
    200020e4:	f82078e4 	str	x4, [x7, x0, lsl #3]
    200020e8:	eb02003f 	cmp	x1, x2
    200020ec:	54fffe28 	b.hi	200020b0 <set_pt+0xe0>  // b.pmore
    200020f0:	91008063 	add	x3, x3, #0x20
    200020f4:	eb03015f 	cmp	x10, x3
    200020f8:	54fffae1 	b.ne	20002054 <set_pt+0x84>  // b.any
    200020fc:	910083ff 	add	sp, sp, #0x20
    20002100:	d65f03c0 	ret
    20002104:	d503201f 	nop
    20002108:	d503201f 	nop
    2000210c:	d503201f 	nop

0000000020002110 <update_pt>:
    20002110:	b0000020 	adrp	x0, 20007000 <pt_config>
    20002114:	a9be7bfd 	stp	x29, x30, [sp, #-32]!
    20002118:	910003fd 	mov	x29, sp
    2000211c:	f9407c00 	ldr	x0, [x0, #248]
    20002120:	97ffffac 	bl	20001fd0 <set_pt>
    20002124:	d2800000 	mov	x0, #0x0                   	// #0
    20002128:	d5182000 	msr	ttbr0_el1, x0
    2000212c:	d0002fe0 	adrp	x0, 20600000 <l1ptd>
    20002130:	91000000 	add	x0, x0, #0x0
    20002134:	d5182000 	msr	ttbr0_el1, x0
    20002138:	d5033fdf 	isb
    2000213c:	d5381000 	mrs	x0, sctlr_el1
    20002140:	f9000fe0 	str	x0, [sp, #24]
    20002144:	d28203a1 	mov	x1, #0x101d                	// #4125
    20002148:	f9400fe0 	ldr	x0, [sp, #24]
    2000214c:	aa010000 	orr	x0, x0, x1
    20002150:	f9000fe0 	str	x0, [sp, #24]
    20002154:	f9400fe0 	ldr	x0, [sp, #24]
    20002158:	926cf800 	and	x0, x0, #0xfffffffffff7ffff
    2000215c:	f9000fe0 	str	x0, [sp, #24]
    20002160:	f9400fe0 	ldr	x0, [sp, #24]
    20002164:	d5181000 	msr	sctlr_el1, x0
    20002168:	d5033f9f 	dsb	sy
    2000216c:	d5033fdf 	isb
    20002170:	a8c27bfd 	ldp	x29, x30, [sp], #32
    20002174:	d65f03c0 	ret
    20002178:	d503201f 	nop
    2000217c:	d503201f 	nop

0000000020002180 <configure_mmu>:
    20002180:	a9bf7bfd 	stp	x29, x30, [sp, #-16]!
    20002184:	910003fd 	mov	x29, sp
    20002188:	97ffff6e 	bl	20001f40 <init_regs>
    2000218c:	97ffff59 	bl	20001ef0 <init_pt>
    20002190:	a8c17bfd 	ldp	x29, x30, [sp], #16
    20002194:	17ffffdf 	b	20002110 <update_pt>

0000000020002198 <__asm_dcache_level>:
    20002198:	d37ff80c 	lsl	x12, x0, #1
    2000219c:	d51a000c 	msr	csselr_el1, x12
    200021a0:	d5033fdf 	isb
    200021a4:	d5390006 	mrs	x6, ccsidr_el1
    200021a8:	924008c2 	and	x2, x6, #0x7
    200021ac:	91001042 	add	x2, x2, #0x4
    200021b0:	d2807fe3 	mov	x3, #0x3ff                 	// #1023
    200021b4:	8a460c63 	and	x3, x3, x6, lsr #3
    200021b8:	5ac01065 	clz	w5, w3
    200021bc:	d28fffe4 	mov	x4, #0x7fff                	// #32767
    200021c0:	8a463484 	and	x4, x4, x6, lsr #13

00000000200021c4 <loop_set>:
    200021c4:	aa0303e6 	mov	x6, x3

00000000200021c8 <loop_way>:
    200021c8:	9ac520c7 	lsl	x7, x6, x5
    200021cc:	aa070189 	orr	x9, x12, x7
    200021d0:	9ac22087 	lsl	x7, x4, x2
    200021d4:	aa070129 	orr	x9, x9, x7
    200021d8:	36000061 	tbz	w1, #0, 200021e4 <loop_way+0x1c>
    200021dc:	d5087649 	dc	isw, x9
    200021e0:	14000002 	b	200021e8 <loop_way+0x20>
    200021e4:	d5087e49 	dc	cisw, x9
    200021e8:	f10004c6 	subs	x6, x6, #0x1
    200021ec:	54fffeea 	b.ge	200021c8 <loop_way>  // b.tcont
    200021f0:	f1000484 	subs	x4, x4, #0x1
    200021f4:	54fffe8a 	b.ge	200021c4 <loop_set>  // b.tcont
    200021f8:	d65f03c0 	ret

00000000200021fc <__asm_dcache_all>:
    200021fc:	aa0003e1 	mov	x1, x0
    20002200:	d5033f9f 	dsb	sy
    20002204:	d539002a 	mrs	x10, clidr_el1
    20002208:	d358fd4b 	lsr	x11, x10, #24
    2000220c:	9240096b 	and	x11, x11, #0x7
    20002210:	b400024b 	cbz	x11, 20002258 <finished>
    20002214:	aa1e03ef 	mov	x15, x30
    20002218:	d2800000 	mov	x0, #0x0                   	// #0

000000002000221c <loop_level>:
    2000221c:	d37ff80c 	lsl	x12, x0, #1
    20002220:	8b00018c 	add	x12, x12, x0
    20002224:	9acc254c 	lsr	x12, x10, x12
    20002228:	9240098c 	and	x12, x12, #0x7
    2000222c:	f100099f 	cmp	x12, #0x2
    20002230:	5400004b 	b.lt	20002238 <skip>  // b.tstop
    20002234:	97ffffd9 	bl	20002198 <__asm_dcache_level>

0000000020002238 <skip>:
    20002238:	91000400 	add	x0, x0, #0x1
    2000223c:	eb00017f 	cmp	x11, x0
    20002240:	54fffeec 	b.gt	2000221c <loop_level>
    20002244:	d2800000 	mov	x0, #0x0                   	// #0
    20002248:	d51a0000 	msr	csselr_el1, x0
    2000224c:	d5033f9f 	dsb	sy
    20002250:	d5033fdf 	isb
    20002254:	aa0f03fe 	mov	x30, x15

0000000020002258 <finished>:
    20002258:	d65f03c0 	ret

000000002000225c <flush_dcache_all>:
    2000225c:	d2800000 	mov	x0, #0x0                   	// #0
    20002260:	17ffffe7 	b	200021fc <__asm_dcache_all>
    20002264:	d65f03c0 	ret

0000000020002268 <invalidate_dcache_all>:
    20002268:	d2800020 	mov	x0, #0x1                   	// #1
    2000226c:	17ffffe4 	b	200021fc <__asm_dcache_all>
    20002270:	d65f03c0 	ret

0000000020002274 <flush_dcache_range>:
    20002274:	d53b0023 	mrs	x3, ctr_el0
    20002278:	d350fc63 	lsr	x3, x3, #16
    2000227c:	92400c63 	and	x3, x3, #0xf
    20002280:	d2800082 	mov	x2, #0x4                   	// #4
    20002284:	9ac32042 	lsl	x2, x2, x3
    20002288:	d1000443 	sub	x3, x2, #0x1
    2000228c:	8a230000 	bic	x0, x0, x3
    20002290:	d50b7e20 	dc	civac, x0
    20002294:	8b020000 	add	x0, x0, x2
    20002298:	eb01001f 	cmp	x0, x1
    2000229c:	54ffffa3 	b.cc	20002290 <flush_dcache_range+0x1c>  // b.lo, b.ul, b.last
    200022a0:	d5033f9f 	dsb	sy
    200022a4:	d65f03c0 	ret

00000000200022a8 <invalidate_dcache_range>:
    200022a8:	d53b0023 	mrs	x3, ctr_el0
    200022ac:	d3504c63 	ubfx	x3, x3, #16, #4
    200022b0:	d2800082 	mov	x2, #0x4                   	// #4
    200022b4:	9ac32042 	lsl	x2, x2, x3
    200022b8:	d1000443 	sub	x3, x2, #0x1
    200022bc:	8a230000 	bic	x0, x0, x3
    200022c0:	d5087620 	dc	ivac, x0
    200022c4:	8b020000 	add	x0, x0, x2
    200022c8:	eb01001f 	cmp	x0, x1
    200022cc:	54ffffa3 	b.cc	200022c0 <invalidate_dcache_range+0x18>  // b.lo, b.ul, b.last
    200022d0:	d5033f9f 	dsb	sy
    200022d4:	d65f03c0 	ret
	...

00000000200022e0 <memset>:
    200022e0:	b40006e2 	cbz	x2, 200023bc <memset+0xdc>
    200022e4:	12001c23 	and	w3, w1, #0xff
    200022e8:	8b020004 	add	x4, x0, x2
    200022ec:	f100085f 	cmp	x2, #0x2
    200022f0:	39000003 	strb	w3, [x0]
    200022f4:	381ff083 	sturb	w3, [x4, #-1]
    200022f8:	54000629 	b.ls	200023bc <memset+0xdc>  // b.plast
    200022fc:	39000403 	strb	w3, [x0, #1]
    20002300:	f100185f 	cmp	x2, #0x6
    20002304:	39000803 	strb	w3, [x0, #2]
    20002308:	381fd083 	sturb	w3, [x4, #-3]
    2000230c:	381fe083 	sturb	w3, [x4, #-2]
    20002310:	54000569 	b.ls	200023bc <memset+0xdc>  // b.plast
    20002314:	39000c03 	strb	w3, [x0, #3]
    20002318:	f100205f 	cmp	x2, #0x8
    2000231c:	381fc083 	sturb	w3, [x4, #-4]
    20002320:	540004e9 	b.ls	200023bc <memset+0xdc>  // b.plast
    20002324:	12001c21 	and	w1, w1, #0xff
    20002328:	3200c3e4 	mov	w4, #0x1010101             	// #16843009
    2000232c:	cb0003e3 	neg	x3, x0
    20002330:	92400463 	and	x3, x3, #0x3
    20002334:	1b047c21 	mul	w1, w1, w4
    20002338:	cb030042 	sub	x2, x2, x3
    2000233c:	8b030005 	add	x5, x0, x3
    20002340:	927ef442 	and	x2, x2, #0xfffffffffffffffc
    20002344:	8b0200a6 	add	x6, x5, x2
    20002348:	b8236801 	str	w1, [x0, x3]
    2000234c:	f100205f 	cmp	x2, #0x8
    20002350:	b81fc0c1 	stur	w1, [x6, #-4]
    20002354:	54000349 	b.ls	200023bc <memset+0xdc>  // b.plast
    20002358:	290084a1 	stp	w1, w1, [x5, #4]
    2000235c:	f100605f 	cmp	x2, #0x18
    20002360:	293e84c1 	stp	w1, w1, [x6, #-12]
    20002364:	540002c9 	b.ls	200023bc <memset+0xdc>  // b.plast
    20002368:	927e00a3 	and	x3, x5, #0x4
    2000236c:	290184a1 	stp	w1, w1, [x5, #12]
    20002370:	d3607c24 	lsl	x4, x1, #32
    20002374:	91006063 	add	x3, x3, #0x18
    20002378:	290284a1 	stp	w1, w1, [x5, #20]
    2000237c:	8b214084 	add	x4, x4, w1, uxtw
    20002380:	cb030042 	sub	x2, x2, x3
    20002384:	293c84c1 	stp	w1, w1, [x6, #-28]
    20002388:	8b0300a3 	add	x3, x5, x3
    2000238c:	f1007c5f 	cmp	x2, #0x1f
    20002390:	293d84c1 	stp	w1, w1, [x6, #-20]
    20002394:	54000149 	b.ls	200023bc <memset+0xdc>  // b.plast
    20002398:	d1008041 	sub	x1, x2, #0x20
    2000239c:	927be821 	and	x1, x1, #0xffffffffffffffe0
    200023a0:	91008021 	add	x1, x1, #0x20
    200023a4:	8b010061 	add	x1, x3, x1
    200023a8:	a9001064 	stp	x4, x4, [x3]
    200023ac:	a9011064 	stp	x4, x4, [x3, #16]
    200023b0:	91008063 	add	x3, x3, #0x20
    200023b4:	eb03003f 	cmp	x1, x3
    200023b8:	54ffff81 	b.ne	200023a8 <memset+0xc8>  // b.any
    200023bc:	d65f03c0 	ret

00000000200023c0 <memcpy>:
    200023c0:	f240043f 	tst	x1, #0x3
    200023c4:	540014e0 	b.eq	20002660 <memcpy+0x2a0>  // b.none
    200023c8:	b4000562 	cbz	x2, 20002474 <memcpy+0xb4>
    200023cc:	aa0003e3 	mov	x3, x0
    200023d0:	14000002 	b	200023d8 <memcpy+0x18>
    200023d4:	b4000c02 	cbz	x2, 20002554 <memcpy+0x194>
    200023d8:	38401424 	ldrb	w4, [x1], #1
    200023dc:	d1000442 	sub	x2, x2, #0x1
    200023e0:	f240043f 	tst	x1, #0x3
    200023e4:	38001464 	strb	w4, [x3], #1
    200023e8:	54ffff61 	b.ne	200023d4 <memcpy+0x14>  // b.any
    200023ec:	f2400465 	ands	x5, x3, #0x3
    200023f0:	54000441 	b.ne	20002478 <memcpy+0xb8>  // b.any
    200023f4:	f1003c5f 	cmp	x2, #0xf
    200023f8:	54000209 	b.ls	20002438 <memcpy+0x78>  // b.plast
    200023fc:	d1004046 	sub	x6, x2, #0x10
    20002400:	d2800004 	mov	x4, #0x0                   	// #0
    20002404:	d344fcc6 	lsr	x6, x6, #4
    20002408:	910004c6 	add	x6, x6, #0x1
    2000240c:	d503201f 	nop
    20002410:	3ce46820 	ldr	q0, [x1, x4]
    20002414:	910004a5 	add	x5, x5, #0x1
    20002418:	eb0600bf 	cmp	x5, x6
    2000241c:	3ca46860 	str	q0, [x3, x4]
    20002420:	91004084 	add	x4, x4, #0x10
    20002424:	54ffff63 	b.cc	20002410 <memcpy+0x50>  // b.lo, b.ul, b.last
    20002428:	d37cecc6 	lsl	x6, x6, #4
    2000242c:	92400c42 	and	x2, x2, #0xf
    20002430:	8b060021 	add	x1, x1, x6
    20002434:	8b060063 	add	x3, x3, x6
    20002438:	927e0046 	and	x6, x2, #0x4
    2000243c:	927f0045 	and	x5, x2, #0x2
    20002440:	92400044 	and	x4, x2, #0x1
    20002444:	36180062 	tbz	w2, #3, 20002450 <memcpy+0x90>
    20002448:	fc408420 	ldr	d0, [x1], #8
    2000244c:	fc008460 	str	d0, [x3], #8
    20002450:	b4000066 	cbz	x6, 2000245c <memcpy+0x9c>
    20002454:	b8404422 	ldr	w2, [x1], #4
    20002458:	b8004462 	str	w2, [x3], #4
    2000245c:	b4000065 	cbz	x5, 20002468 <memcpy+0xa8>
    20002460:	78402422 	ldrh	w2, [x1], #2
    20002464:	78002462 	strh	w2, [x3], #2
    20002468:	b4000064 	cbz	x4, 20002474 <memcpy+0xb4>
    2000246c:	39400021 	ldrb	w1, [x1]
    20002470:	39000061 	strb	w1, [x3]
    20002474:	d65f03c0 	ret
    20002478:	f1007c5f 	cmp	x2, #0x1f
    2000247c:	54000569 	b.ls	20002528 <memcpy+0x168>  // b.plast
    20002480:	f10008bf 	cmp	x5, #0x2
    20002484:	bd400021 	ldr	s1, [x1]
    20002488:	39400028 	ldrb	w8, [x1]
    2000248c:	54000aa0 	b.eq	200025e0 <memcpy+0x220>  // b.none
    20002490:	f1000cbf 	cmp	x5, #0x3
    20002494:	54000660 	b.eq	20002560 <memcpy+0x1a0>  // b.none
    20002498:	7940002b 	ldrh	w11, [x1]
    2000249c:	d1005044 	sub	x4, x2, #0x14
    200024a0:	aa0303e7 	mov	x7, x3
    200024a4:	927cec89 	and	x9, x4, #0xfffffffffffffff0
    200024a8:	91000c28 	add	x8, x1, #0x3
    200024ac:	3940082a 	ldrb	w10, [x1, #2]
    200024b0:	91004d25 	add	x5, x9, #0x13
    200024b4:	d344fc86 	lsr	x6, x4, #4
    200024b8:	8b050065 	add	x5, x3, x5
    200024bc:	aa0803e1 	mov	x1, x8
    200024c0:	780034eb 	strh	w11, [x7], #3
    200024c4:	aa0703e4 	mov	x4, x7
    200024c8:	3900086a 	strb	w10, [x3, #2]
    200024cc:	d503201f 	nop
    200024d0:	9100242a 	add	x10, x1, #0x9
    200024d4:	4ea11c20 	mov	v0.16b, v1.16b
    200024d8:	91004021 	add	x1, x1, #0x10
    200024dc:	2d7f1142 	ldp	s2, s4, [x10, #-8]
    200024e0:	2d400543 	ldp	s3, s1, [x10]
    200024e4:	6e0c0440 	mov	v0.s[1], v2.s[0]
    200024e8:	3cdf1022 	ldur	q2, [x1, #-15]
    200024ec:	6e140480 	mov	v0.s[2], v4.s[0]
    200024f0:	4f285442 	shl	v2.4s, v2.4s, #8
    200024f4:	6e1c0460 	mov	v0.s[3], v3.s[0]
    200024f8:	6f280400 	ushr	v0.4s, v0.4s, #24
    200024fc:	4ea21c00 	orr	v0.16b, v0.16b, v2.16b
    20002500:	3c810480 	str	q0, [x4], #16
    20002504:	eb05009f 	cmp	x4, x5
    20002508:	54fffe41 	b.ne	200024d0 <memcpy+0x110>  // b.any
    2000250c:	910004c3 	add	x3, x6, #0x1
    20002510:	d1004c42 	sub	x2, x2, #0x13
    20002514:	d37cec63 	lsl	x3, x3, #4
    20002518:	cb090042 	sub	x2, x2, x9
    2000251c:	8b030101 	add	x1, x8, x3
    20002520:	8b0300e3 	add	x3, x7, x3
    20002524:	d503201f 	nop
    20002528:	927d0047 	and	x7, x2, #0x8
    2000252c:	927e0046 	and	x6, x2, #0x4
    20002530:	927f0045 	and	x5, x2, #0x2
    20002534:	92400044 	and	x4, x2, #0x1
    20002538:	36200062 	tbz	w2, #4, 20002544 <memcpy+0x184>
    2000253c:	3cc10420 	ldr	q0, [x1], #16
    20002540:	3c810460 	str	q0, [x3], #16
    20002544:	b4fff867 	cbz	x7, 20002450 <memcpy+0x90>
    20002548:	fc408420 	ldr	d0, [x1], #8
    2000254c:	fc008460 	str	d0, [x3], #8
    20002550:	17ffffc0 	b	20002450 <memcpy+0x90>
    20002554:	f240047f 	tst	x3, #0x3
    20002558:	54fffe81 	b.ne	20002528 <memcpy+0x168>  // b.any
    2000255c:	d65f03c0 	ret
    20002560:	d1005044 	sub	x4, x2, #0x14
    20002564:	aa0303e7 	mov	x7, x3
    20002568:	927cec89 	and	x9, x4, #0xfffffffffffffff0
    2000256c:	91000421 	add	x1, x1, #0x1
    20002570:	91004525 	add	x5, x9, #0x11
    20002574:	d344fc86 	lsr	x6, x4, #4
    20002578:	380014e8 	strb	w8, [x7], #1
    2000257c:	8b050065 	add	x5, x3, x5
    20002580:	aa0703e4 	mov	x4, x7
    20002584:	aa0103e3 	mov	x3, x1
    20002588:	91002c68 	add	x8, x3, #0xb
    2000258c:	4ea11c20 	mov	v0.16b, v1.16b
    20002590:	91004063 	add	x3, x3, #0x10
    20002594:	2d7f1102 	ldp	s2, s4, [x8, #-8]
    20002598:	2d400503 	ldp	s3, s1, [x8]
    2000259c:	6e0c0440 	mov	v0.s[1], v2.s[0]
    200025a0:	3cdf3062 	ldur	q2, [x3, #-13]
    200025a4:	6e140480 	mov	v0.s[2], v4.s[0]
    200025a8:	4f385442 	shl	v2.4s, v2.4s, #24
    200025ac:	6e1c0460 	mov	v0.s[3], v3.s[0]
    200025b0:	6f380400 	ushr	v0.4s, v0.4s, #8
    200025b4:	4ea21c00 	orr	v0.16b, v0.16b, v2.16b
    200025b8:	3c810480 	str	q0, [x4], #16
    200025bc:	eb05009f 	cmp	x4, x5
    200025c0:	54fffe41 	b.ne	20002588 <memcpy+0x1c8>  // b.any
    200025c4:	910004c3 	add	x3, x6, #0x1
    200025c8:	d1004442 	sub	x2, x2, #0x11
    200025cc:	d37cec63 	lsl	x3, x3, #4
    200025d0:	cb090042 	sub	x2, x2, x9
    200025d4:	8b030021 	add	x1, x1, x3
    200025d8:	8b0300e3 	add	x3, x7, x3
    200025dc:	17ffffd3 	b	20002528 <memcpy+0x168>
    200025e0:	78402425 	ldrh	w5, [x1], #2
    200025e4:	d1005044 	sub	x4, x2, #0x14
    200025e8:	927cec88 	and	x8, x4, #0xfffffffffffffff0
    200025ec:	d344fc87 	lsr	x7, x4, #4
    200025f0:	91004906 	add	x6, x8, #0x12
    200025f4:	8b060066 	add	x6, x3, x6
    200025f8:	aa0103e4 	mov	x4, x1
    200025fc:	78002465 	strh	w5, [x3], #2
    20002600:	aa0303e5 	mov	x5, x3
    20002604:	d503201f 	nop
    20002608:	91002889 	add	x9, x4, #0xa
    2000260c:	4ea11c20 	mov	v0.16b, v1.16b
    20002610:	91004084 	add	x4, x4, #0x10
    20002614:	2d7f1122 	ldp	s2, s4, [x9, #-8]
    20002618:	2d400523 	ldp	s3, s1, [x9]
    2000261c:	6e0c0440 	mov	v0.s[1], v2.s[0]
    20002620:	3cdf2082 	ldur	q2, [x4, #-14]
    20002624:	6e140480 	mov	v0.s[2], v4.s[0]
    20002628:	4f305442 	shl	v2.4s, v2.4s, #16
    2000262c:	6e1c0460 	mov	v0.s[3], v3.s[0]
    20002630:	6f300400 	ushr	v0.4s, v0.4s, #16
    20002634:	4ea21c00 	orr	v0.16b, v0.16b, v2.16b
    20002638:	3c8104a0 	str	q0, [x5], #16
    2000263c:	eb0600bf 	cmp	x5, x6
    20002640:	54fffe41 	b.ne	20002608 <memcpy+0x248>  // b.any
    20002644:	910004e4 	add	x4, x7, #0x1
    20002648:	d1004842 	sub	x2, x2, #0x12
    2000264c:	d37cec84 	lsl	x4, x4, #4
    20002650:	cb080042 	sub	x2, x2, x8
    20002654:	8b040021 	add	x1, x1, x4
    20002658:	8b040063 	add	x3, x3, x4
    2000265c:	17ffffb3 	b	20002528 <memcpy+0x168>
    20002660:	aa0003e3 	mov	x3, x0
    20002664:	17ffff62 	b	200023ec <memcpy+0x2c>
	...

0000000020002670 <pxPortInitialiseStack>:
    20002670:	5282424e 	mov	w14, #0x1212                	// #4626
    20002674:	aa0003e3 	mov	x3, x0
    20002678:	a9bd7bfd 	stp	x29, x30, [sp, #-48]!
    2000267c:	33103dce 	bfi	w14, w14, #16, #16
    20002680:	910003fd 	mov	x29, sp
    20002684:	52828290 	mov	w16, #0x1414                	// #5140
    20002688:	5282e2f1 	mov	w17, #0x1717                	// #5911
    2000268c:	33103e10 	bfi	w16, w16, #16, #16
    20002690:	33103e31 	bfi	w17, w17, #16, #16
    20002694:	5282a2af 	mov	w15, #0x1515                	// #5397
    20002698:	5282c2d2 	mov	w18, #0x1616                	// #5654
    2000269c:	5283233e 	mov	w30, #0x1919                	// #6425
    200026a0:	a90153f3 	stp	x19, x20, [sp, #16]
    200026a4:	52842433 	mov	w19, #0x2121                	// #8481
    200026a8:	33103def 	bfi	w15, w15, #16, #16
    200026ac:	5281212d 	mov	w13, #0x909                 	// #2313
    200026b0:	52826264 	mov	w4, #0x1313                	// #4883
    200026b4:	33103e52 	bfi	w18, w18, #16, #16
    200026b8:	5280a0ac 	mov	w12, #0x505                 	// #1285
    200026bc:	52846465 	mov	w5, #0x2323                	// #8995
    200026c0:	a9025bf5 	stp	x21, x22, [sp, #32]
    200026c4:	33103fde 	bfi	w30, w30, #16, #16
    200026c8:	5284a4a6 	mov	w6, #0x2525                	// #9509
    200026cc:	33103e73 	bfi	w19, w19, #16, #16
    200026d0:	52848487 	mov	w7, #0x2424                	// #9252
    200026d4:	5284e4e8 	mov	w8, #0x2727                	// #10023
    200026d8:	33103dad 	bfi	w13, w13, #16, #16
    200026dc:	5284c4c9 	mov	w9, #0x2626                	// #9766
    200026e0:	5285252a 	mov	w10, #0x2929                	// #10537
    200026e4:	2932386e 	stp	w14, w14, [x3, #-112]
    200026e8:	b205c7ee 	mov	x14, #0x1818181818181818    	// #1736164148113840152
    200026ec:	33103c84 	bfi	w4, w4, #16, #16
    200026f0:	5285050b 	mov	w11, #0x2828                	// #10280
    200026f4:	33103d8c 	bfi	w12, w12, #16, #16
    200026f8:	b207c7f6 	mov	x22, #0x606060606060606     	// #434041037028460038
    200026fc:	33103ca5 	bfi	w5, w5, #16, #16
    20002700:	b205c3e0 	mov	x0, #0x808080808080808     	// #578721382704613384
    20002704:	f816006e 	stur	x14, [x3, #-160]
    20002708:	33103cc6 	bfi	w6, w6, #16, #16
    2000270c:	b203c3ee 	mov	x14, #0x2020202020202020    	// #2314885530818453536
    20002710:	292f4471 	stp	w17, w17, [x3, #-136]
    20002714:	33103ce7 	bfi	w7, w7, #16, #16
    20002718:	b204c3f1 	mov	x17, #0x1010101010101010    	// #1157442765409226768
    2000271c:	29304070 	stp	w16, w16, [x3, #-128]
    20002720:	33103d08 	bfi	w8, w8, #16, #16
    20002724:	b200e3f0 	mov	x16, #0x1111111111111111    	// #1229782938247303441
    20002728:	b200c3f4 	mov	x20, #0x101010101010101     	// #72340172838076673
    2000272c:	33103d29 	bfi	w9, w9, #16, #16
    20002730:	b200c7f5 	mov	x21, #0x303030303030303     	// #217020518514230019
    20002734:	292b4c73 	stp	w19, w19, [x3, #-168]
    20002738:	33103d4a 	bfi	w10, w10, #16, #16
    2000273c:	b207c3f3 	mov	x19, #0x202020202020202     	// #144680345676153346
    20002740:	292d787e 	stp	w30, w30, [x3, #-152]
    20002744:	33103d6b 	bfi	w11, w11, #16, #16
    20002748:	b206c3fe 	mov	x30, #0x404040404040404     	// #289360691352306692
    2000274c:	292e4872 	stp	w18, w18, [x3, #-144]
    20002750:	b200cbf2 	mov	x18, #0x707070707070707     	// #506381209866536711
    20002754:	29313c6f 	stp	w15, w15, [x3, #-120]
    20002758:	b203e3ef 	mov	x15, #0x2222222222222222    	// #2459565876494606882
    2000275c:	f815006e 	stur	x14, [x3, #-176]
    20002760:	d280008e 	mov	x14, #0x4                   	// #4
    20002764:	29331064 	stp	w4, w4, [x3, #-104]
    20002768:	d1402064 	sub	x4, x3, #0x8, lsl #12
    2000276c:	a93a4071 	stp	x17, x16, [x3, #-96]
    20002770:	f81b0060 	stur	x0, [x3, #-80]
    20002774:	d1048060 	sub	x0, x3, #0x120
    20002778:	2937346d 	stp	w13, w13, [x3, #-72]
    2000277c:	f81c0076 	stur	x22, [x3, #-64]
    20002780:	a93cf872 	stp	x18, x30, [x3, #-56]
    20002784:	a9307c7f 	stp	xzr, xzr, [x3, #-256]
    20002788:	29222c6b 	stp	w11, w11, [x3, #-240]
    2000278c:	2923286a 	stp	w10, w10, [x3, #-232]
    20002790:	29242469 	stp	w9, w9, [x3, #-224]
    20002794:	29252068 	stp	w8, w8, [x3, #-216]
    20002798:	29261c67 	stp	w7, w7, [x3, #-208]
    2000279c:	29271866 	stp	w6, w6, [x3, #-200]
    200027a0:	f814006f 	stur	x15, [x3, #-192]
    200027a4:	29291465 	stp	w5, w5, [x3, #-184]
    200027a8:	293b306c 	stp	w12, w12, [x3, #-40]
    200027ac:	a93e5473 	stp	x19, x21, [x3, #-32]
    200027b0:	a93f5062 	stp	x2, x20, [x3, #-16]
    200027b4:	a94153f3 	ldp	x19, x20, [sp, #16]
    200027b8:	a9425bf5 	ldp	x21, x22, [sp, #32]
    200027bc:	f93f709f 	str	xzr, [x4, #32480]
    200027c0:	f93f749f 	str	xzr, [x4, #32488]
    200027c4:	f93f7881 	str	x1, [x4, #32496]
    200027c8:	f93f7c8e 	str	x14, [x4, #32504]
    200027cc:	a8c37bfd 	ldp	x29, x30, [sp], #48
    200027d0:	d65f03c0 	ret
    200027d4:	d503201f 	nop
    200027d8:	d503201f 	nop
    200027dc:	d503201f 	nop

00000000200027e0 <xPortStartScheduler>:
    200027e0:	d5384240 	mrs	x0, currentel
    200027e4:	121e0400 	and	w0, w0, #0xc
    200027e8:	7100101f 	cmp	w0, #0x4
    200027ec:	54000060 	b.eq	200027f8 <xPortStartScheduler+0x18>  // b.none
    200027f0:	d2800000 	mov	x0, #0x0                   	// #0
    200027f4:	d65f03c0 	ret
    200027f8:	d2840100 	mov	x0, #0x2008                	// #8200
    200027fc:	f2bff080 	movk	x0, #0xff84, lsl #16
    20002800:	a9bf7bfd 	stp	x29, x30, [sp, #-16]!
    20002804:	910003fd 	mov	x29, sp
    20002808:	b9400000 	ldr	w0, [x0]
    2000280c:	d50342df 	msr	daifset, #0x2
    20002810:	d5033f9f 	dsb	sy
    20002814:	d5033fdf 	isb
    20002818:	97fffc2a 	bl	200018c0 <vConfigureTickInterrupt>
    2000281c:	940000f9 	bl	20002c00 <vPortRestoreTaskContext>
    20002820:	d2800000 	mov	x0, #0x0                   	// #0
    20002824:	a8c17bfd 	ldp	x29, x30, [sp], #16
    20002828:	d65f03c0 	ret
    2000282c:	d503201f 	nop

0000000020002830 <vPortEndScheduler>:
    20002830:	d65f03c0 	ret
    20002834:	d503201f 	nop
    20002838:	d503201f 	nop
    2000283c:	d503201f 	nop

0000000020002840 <vPortExitCritical>:
    20002840:	b0000020 	adrp	x0, 20007000 <pt_config>
    20002844:	f9406400 	ldr	x0, [x0, #200]
    20002848:	f9400001 	ldr	x1, [x0]
    2000284c:	b4000241 	cbz	x1, 20002894 <vPortExitCritical+0x54>
    20002850:	f9400001 	ldr	x1, [x0]
    20002854:	d1000421 	sub	x1, x1, #0x1
    20002858:	f9000001 	str	x1, [x0]
    2000285c:	f9400000 	ldr	x0, [x0]
    20002860:	b50001a0 	cbnz	x0, 20002894 <vPortExitCritical+0x54>
    20002864:	d50342df 	msr	daifset, #0x2
    20002868:	d5033f9f 	dsb	sy
    2000286c:	d5033fdf 	isb
    20002870:	52801fe1 	mov	w1, #0xff                  	// #255
    20002874:	d2840080 	mov	x0, #0x2004                	// #8196
    20002878:	f2bff080 	movk	x0, #0xff84, lsl #16
    2000287c:	b9000001 	str	w1, [x0]
    20002880:	d5033f9f 	dsb	sy
    20002884:	d5033fdf 	isb
    20002888:	d50342ff 	msr	daifclr, #0x2
    2000288c:	d5033f9f 	dsb	sy
    20002890:	d5033fdf 	isb
    20002894:	d65f03c0 	ret
    20002898:	d503201f 	nop
    2000289c:	d503201f 	nop

00000000200028a0 <FreeRTOS_Tick_Handler>:
    200028a0:	52801c01 	mov	w1, #0xe0                  	// #224
    200028a4:	d2840080 	mov	x0, #0x2004                	// #8196
    200028a8:	f2bff080 	movk	x0, #0xff84, lsl #16
    200028ac:	a9bf7bfd 	stp	x29, x30, [sp, #-16]!
    200028b0:	910003fd 	mov	x29, sp
    200028b4:	b9000001 	str	w1, [x0]
    200028b8:	d5033f9f 	dsb	sy
    200028bc:	d5033fdf 	isb
    200028c0:	97fffc10 	bl	20001900 <vClearTickInterrupt>
    200028c4:	d50342ff 	msr	daifclr, #0x2
    200028c8:	d5033f9f 	dsb	sy
    200028cc:	d5033fdf 	isb
    200028d0:	94000818 	bl	20004930 <xTaskIncrementTick>
    200028d4:	b40000a0 	cbz	x0, 200028e8 <FreeRTOS_Tick_Handler+0x48>
    200028d8:	b0000020 	adrp	x0, 20007000 <pt_config>
    200028dc:	d2800021 	mov	x1, #0x1                   	// #1
    200028e0:	f9407400 	ldr	x0, [x0, #232]
    200028e4:	f9000001 	str	x1, [x0]
    200028e8:	d50342df 	msr	daifset, #0x2
    200028ec:	d5033f9f 	dsb	sy
    200028f0:	d5033fdf 	isb
    200028f4:	52801fe1 	mov	w1, #0xff                  	// #255
    200028f8:	d2840080 	mov	x0, #0x2004                	// #8196
    200028fc:	f2bff080 	movk	x0, #0xff84, lsl #16
    20002900:	b9000001 	str	w1, [x0]
    20002904:	d5033f9f 	dsb	sy
    20002908:	d5033fdf 	isb
    2000290c:	d50342ff 	msr	daifclr, #0x2
    20002910:	d5033f9f 	dsb	sy
    20002914:	d5033fdf 	isb
    20002918:	a8c17bfd 	ldp	x29, x30, [sp], #16
    2000291c:	d65f03c0 	ret

0000000020002920 <vPortTaskUsesFPU>:
    20002920:	b0000020 	adrp	x0, 20007000 <pt_config>
    20002924:	d2800021 	mov	x1, #0x1                   	// #1
    20002928:	f9407800 	ldr	x0, [x0, #240]
    2000292c:	f9000001 	str	x1, [x0]
    20002930:	d65f03c0 	ret
    20002934:	d503201f 	nop
    20002938:	d503201f 	nop
    2000293c:	d503201f 	nop

0000000020002940 <vPortClearInterruptMask>:
    20002940:	b50001a0 	cbnz	x0, 20002974 <vPortClearInterruptMask+0x34>
    20002944:	d50342df 	msr	daifset, #0x2
    20002948:	d5033f9f 	dsb	sy
    2000294c:	d5033fdf 	isb
    20002950:	52801fe1 	mov	w1, #0xff                  	// #255
    20002954:	d2840080 	mov	x0, #0x2004                	// #8196
    20002958:	f2bff080 	movk	x0, #0xff84, lsl #16
    2000295c:	b9000001 	str	w1, [x0]
    20002960:	d5033f9f 	dsb	sy
    20002964:	d5033fdf 	isb
    20002968:	d50342ff 	msr	daifclr, #0x2
    2000296c:	d5033f9f 	dsb	sy
    20002970:	d5033fdf 	isb
    20002974:	d65f03c0 	ret
    20002978:	d503201f 	nop
    2000297c:	d503201f 	nop

0000000020002980 <uxPortSetInterruptMask>:
    20002980:	d50342df 	msr	daifset, #0x2
    20002984:	d5033f9f 	dsb	sy
    20002988:	d5033fdf 	isb
    2000298c:	d2840081 	mov	x1, #0x2004                	// #8196
    20002990:	f2bff081 	movk	x1, #0xff84, lsl #16
    20002994:	b9400022 	ldr	w2, [x1]
    20002998:	d2800020 	mov	x0, #0x1                   	// #1
    2000299c:	7103805f 	cmp	w2, #0xe0
    200029a0:	540000c0 	b.eq	200029b8 <uxPortSetInterruptMask+0x38>  // b.none
    200029a4:	52801c00 	mov	w0, #0xe0                  	// #224
    200029a8:	b9000020 	str	w0, [x1]
    200029ac:	d5033f9f 	dsb	sy
    200029b0:	d5033fdf 	isb
    200029b4:	d2800000 	mov	x0, #0x0                   	// #0
    200029b8:	d50342ff 	msr	daifclr, #0x2
    200029bc:	d5033f9f 	dsb	sy
    200029c0:	d5033fdf 	isb
    200029c4:	d65f03c0 	ret
    200029c8:	d503201f 	nop
    200029cc:	d503201f 	nop

00000000200029d0 <vPortEnterCritical>:
    200029d0:	a9bf7bfd 	stp	x29, x30, [sp, #-16]!
    200029d4:	910003fd 	mov	x29, sp
    200029d8:	97ffffea 	bl	20002980 <uxPortSetInterruptMask>
    200029dc:	b0000020 	adrp	x0, 20007000 <pt_config>
    200029e0:	f9406400 	ldr	x0, [x0, #200]
    200029e4:	f9400001 	ldr	x1, [x0]
    200029e8:	91000421 	add	x1, x1, #0x1
    200029ec:	f9000001 	str	x1, [x0]
    200029f0:	f9400000 	ldr	x0, [x0]
    200029f4:	a8c17bfd 	ldp	x29, x30, [sp], #16
    200029f8:	d65f03c0 	ret
    200029fc:	00000000 	udf	#0

0000000020002a00 <FreeRTOS_SWI_Handler>:
    20002a00:	d50040bf 	msr	spsel, #0x0
    20002a04:	a9bf07e0 	stp	x0, x1, [sp, #-16]!
    20002a08:	a9bf0fe2 	stp	x2, x3, [sp, #-16]!
    20002a0c:	a9bf17e4 	stp	x4, x5, [sp, #-16]!
    20002a10:	a9bf1fe6 	stp	x6, x7, [sp, #-16]!
    20002a14:	a9bf27e8 	stp	x8, x9, [sp, #-16]!
    20002a18:	a9bf2fea 	stp	x10, x11, [sp, #-16]!
    20002a1c:	a9bf37ec 	stp	x12, x13, [sp, #-16]!
    20002a20:	a9bf3fee 	stp	x14, x15, [sp, #-16]!
    20002a24:	a9bf47f0 	stp	x16, x17, [sp, #-16]!
    20002a28:	a9bf4ff2 	stp	x18, x19, [sp, #-16]!
    20002a2c:	a9bf57f4 	stp	x20, x21, [sp, #-16]!
    20002a30:	a9bf5ff6 	stp	x22, x23, [sp, #-16]!
    20002a34:	a9bf67f8 	stp	x24, x25, [sp, #-16]!
    20002a38:	a9bf6ffa 	stp	x26, x27, [sp, #-16]!
    20002a3c:	a9bf77fc 	stp	x28, x29, [sp, #-16]!
    20002a40:	a9bf7ffe 	stp	x30, xzr, [sp, #-16]!
    20002a44:	d5384003 	mrs	x3, spsr_el1
    20002a48:	d5384022 	mrs	x2, elr_el1
    20002a4c:	a9bf0fe2 	stp	x2, x3, [sp, #-16]!
    20002a50:	58002dc0 	ldr	x0, 20003008 <ullCriticalNestingConst>
    20002a54:	f9400003 	ldr	x3, [x0]
    20002a58:	58002dc0 	ldr	x0, 20003010 <ullPortTaskHasFPUContextConst>
    20002a5c:	f9400002 	ldr	x2, [x0]
    20002a60:	f100005f 	cmp	x2, #0x0
    20002a64:	54000220 	b.eq	20002aa8 <FreeRTOS_SWI_Handler+0xa8>  // b.none
    20002a68:	adbf07e0 	stp	q0, q1, [sp, #-32]!
    20002a6c:	adbf0fe2 	stp	q2, q3, [sp, #-32]!
    20002a70:	adbf17e4 	stp	q4, q5, [sp, #-32]!
    20002a74:	adbf1fe6 	stp	q6, q7, [sp, #-32]!
    20002a78:	adbf27e8 	stp	q8, q9, [sp, #-32]!
    20002a7c:	adbf2fea 	stp	q10, q11, [sp, #-32]!
    20002a80:	adbf37ec 	stp	q12, q13, [sp, #-32]!
    20002a84:	adbf3fee 	stp	q14, q15, [sp, #-32]!
    20002a88:	adbf47f0 	stp	q16, q17, [sp, #-32]!
    20002a8c:	adbf4ff2 	stp	q18, q19, [sp, #-32]!
    20002a90:	adbf57f4 	stp	q20, q21, [sp, #-32]!
    20002a94:	adbf5ff6 	stp	q22, q23, [sp, #-32]!
    20002a98:	adbf67f8 	stp	q24, q25, [sp, #-32]!
    20002a9c:	adbf6ffa 	stp	q26, q27, [sp, #-32]!
    20002aa0:	adbf77fc 	stp	q28, q29, [sp, #-32]!
    20002aa4:	adbf7ffe 	stp	q30, q31, [sp, #-32]!
    20002aa8:	a9bf0fe2 	stp	x2, x3, [sp, #-16]!
    20002aac:	58002aa0 	ldr	x0, 20003000 <pxCurrentTCBConst>
    20002ab0:	f9400001 	ldr	x1, [x0]
    20002ab4:	910003e0 	mov	x0, sp
    20002ab8:	f9000020 	str	x0, [x1]
    20002abc:	d50041bf 	msr	spsel, #0x1
    20002ac0:	d5385200 	mrs	x0, esr_el1
    20002ac4:	d35afc01 	lsr	x1, x0, #26
    20002ac8:	f100543f 	cmp	x1, #0x15
    20002acc:	540007a1 	b.ne	20002bc0 <FreeRTOS_Abort>  // b.any
    20002ad0:	9400089c 	bl	20004d40 <vTaskSwitchContext>
    20002ad4:	d50040bf 	msr	spsel, #0x0
    20002ad8:	58002940 	ldr	x0, 20003000 <pxCurrentTCBConst>
    20002adc:	f9400001 	ldr	x1, [x0]
    20002ae0:	f9400020 	ldr	x0, [x1]
    20002ae4:	9100001f 	mov	sp, x0
    20002ae8:	a8c10fe2 	ldp	x2, x3, [sp], #16
    20002aec:	580028e0 	ldr	x0, 20003008 <ullCriticalNestingConst>
    20002af0:	d2801fe1 	mov	x1, #0xff                  	// #255
    20002af4:	58002924 	ldr	x4, 20003018 <ullICCPMRConst>
    20002af8:	f100007f 	cmp	x3, #0x0
    20002afc:	f9400085 	ldr	x5, [x4]
    20002b00:	54000060 	b.eq	20002b0c <FreeRTOS_SWI_Handler+0x10c>  // b.none
    20002b04:	580028e6 	ldr	x6, 20003020 <ullMaxAPIPriorityMaskConst>
    20002b08:	f94000c1 	ldr	x1, [x6]
    20002b0c:	b90000a1 	str	w1, [x5]
    20002b10:	d5033f9f 	dsb	sy
    20002b14:	d5033fdf 	isb
    20002b18:	f9000003 	str	x3, [x0]
    20002b1c:	580027a0 	ldr	x0, 20003010 <ullPortTaskHasFPUContextConst>
    20002b20:	f9000002 	str	x2, [x0]
    20002b24:	f100005f 	cmp	x2, #0x0
    20002b28:	54000220 	b.eq	20002b6c <FreeRTOS_SWI_Handler+0x16c>  // b.none
    20002b2c:	acc17ffe 	ldp	q30, q31, [sp], #32
    20002b30:	acc177fc 	ldp	q28, q29, [sp], #32
    20002b34:	acc16ffa 	ldp	q26, q27, [sp], #32
    20002b38:	acc167f8 	ldp	q24, q25, [sp], #32
    20002b3c:	acc15ff6 	ldp	q22, q23, [sp], #32
    20002b40:	acc157f4 	ldp	q20, q21, [sp], #32
    20002b44:	acc14ff2 	ldp	q18, q19, [sp], #32
    20002b48:	acc147f0 	ldp	q16, q17, [sp], #32
    20002b4c:	acc13fee 	ldp	q14, q15, [sp], #32
    20002b50:	acc137ec 	ldp	q12, q13, [sp], #32
    20002b54:	acc12fea 	ldp	q10, q11, [sp], #32
    20002b58:	acc127e8 	ldp	q8, q9, [sp], #32
    20002b5c:	acc11fe6 	ldp	q6, q7, [sp], #32
    20002b60:	acc117e4 	ldp	q4, q5, [sp], #32
    20002b64:	acc10fe2 	ldp	q2, q3, [sp], #32
    20002b68:	acc107e0 	ldp	q0, q1, [sp], #32
    20002b6c:	a8c10fe2 	ldp	x2, x3, [sp], #16
    20002b70:	d5184003 	msr	spsr_el1, x3
    20002b74:	d5184022 	msr	elr_el1, x2
    20002b78:	a8c17ffe 	ldp	x30, xzr, [sp], #16
    20002b7c:	a8c177fc 	ldp	x28, x29, [sp], #16
    20002b80:	a8c16ffa 	ldp	x26, x27, [sp], #16
    20002b84:	a8c167f8 	ldp	x24, x25, [sp], #16
    20002b88:	a8c15ff6 	ldp	x22, x23, [sp], #16
    20002b8c:	a8c157f4 	ldp	x20, x21, [sp], #16
    20002b90:	a8c14ff2 	ldp	x18, x19, [sp], #16
    20002b94:	a8c147f0 	ldp	x16, x17, [sp], #16
    20002b98:	a8c13fee 	ldp	x14, x15, [sp], #16
    20002b9c:	a8c137ec 	ldp	x12, x13, [sp], #16
    20002ba0:	a8c12fea 	ldp	x10, x11, [sp], #16
    20002ba4:	a8c127e8 	ldp	x8, x9, [sp], #16
    20002ba8:	a8c11fe6 	ldp	x6, x7, [sp], #16
    20002bac:	a8c117e4 	ldp	x4, x5, [sp], #16
    20002bb0:	a8c10fe2 	ldp	x2, x3, [sp], #16
    20002bb4:	a8c107e0 	ldp	x0, x1, [sp], #16
    20002bb8:	d50041bf 	msr	spsel, #0x1
    20002bbc:	d69f03e0 	eret

0000000020002bc0 <FreeRTOS_Abort>:
    20002bc0:	14000000 	b	20002bc0 <FreeRTOS_Abort>
    20002bc4:	d503201f 	nop
    20002bc8:	d503201f 	nop
    20002bcc:	d503201f 	nop
    20002bd0:	d503201f 	nop
    20002bd4:	d503201f 	nop
    20002bd8:	d503201f 	nop
    20002bdc:	d503201f 	nop
    20002be0:	d503201f 	nop
    20002be4:	d503201f 	nop
    20002be8:	d503201f 	nop
    20002bec:	d503201f 	nop
    20002bf0:	d503201f 	nop
    20002bf4:	d503201f 	nop
    20002bf8:	d503201f 	nop
    20002bfc:	d503201f 	nop

0000000020002c00 <vPortRestoreTaskContext>:
    20002c00:	58002901 	ldr	x1, 20003120 <ullICCEOIRConst+0x8>
    20002c04:	d518c001 	msr	vbar_el1, x1
    20002c08:	d5033f9f 	dsb	sy
    20002c0c:	d5033fdf 	isb
    20002c10:	d50040bf 	msr	spsel, #0x0
    20002c14:	58001f60 	ldr	x0, 20003000 <pxCurrentTCBConst>
    20002c18:	f9400001 	ldr	x1, [x0]
    20002c1c:	f9400020 	ldr	x0, [x1]
    20002c20:	9100001f 	mov	sp, x0
    20002c24:	a8c10fe2 	ldp	x2, x3, [sp], #16
    20002c28:	58001f00 	ldr	x0, 20003008 <ullCriticalNestingConst>
    20002c2c:	d2801fe1 	mov	x1, #0xff                  	// #255
    20002c30:	58001f44 	ldr	x4, 20003018 <ullICCPMRConst>
    20002c34:	f100007f 	cmp	x3, #0x0
    20002c38:	f9400085 	ldr	x5, [x4]
    20002c3c:	54000060 	b.eq	20002c48 <vPortRestoreTaskContext+0x48>  // b.none
    20002c40:	58001f06 	ldr	x6, 20003020 <ullMaxAPIPriorityMaskConst>
    20002c44:	f94000c1 	ldr	x1, [x6]
    20002c48:	b90000a1 	str	w1, [x5]
    20002c4c:	d5033f9f 	dsb	sy
    20002c50:	d5033fdf 	isb
    20002c54:	f9000003 	str	x3, [x0]
    20002c58:	58001dc0 	ldr	x0, 20003010 <ullPortTaskHasFPUContextConst>
    20002c5c:	f9000002 	str	x2, [x0]
    20002c60:	f100005f 	cmp	x2, #0x0
    20002c64:	54000220 	b.eq	20002ca8 <vPortRestoreTaskContext+0xa8>  // b.none
    20002c68:	acc17ffe 	ldp	q30, q31, [sp], #32
    20002c6c:	acc177fc 	ldp	q28, q29, [sp], #32
    20002c70:	acc16ffa 	ldp	q26, q27, [sp], #32
    20002c74:	acc167f8 	ldp	q24, q25, [sp], #32
    20002c78:	acc15ff6 	ldp	q22, q23, [sp], #32
    20002c7c:	acc157f4 	ldp	q20, q21, [sp], #32
    20002c80:	acc14ff2 	ldp	q18, q19, [sp], #32
    20002c84:	acc147f0 	ldp	q16, q17, [sp], #32
    20002c88:	acc13fee 	ldp	q14, q15, [sp], #32
    20002c8c:	acc137ec 	ldp	q12, q13, [sp], #32
    20002c90:	acc12fea 	ldp	q10, q11, [sp], #32
    20002c94:	acc127e8 	ldp	q8, q9, [sp], #32
    20002c98:	acc11fe6 	ldp	q6, q7, [sp], #32
    20002c9c:	acc117e4 	ldp	q4, q5, [sp], #32
    20002ca0:	acc10fe2 	ldp	q2, q3, [sp], #32
    20002ca4:	acc107e0 	ldp	q0, q1, [sp], #32
    20002ca8:	a8c10fe2 	ldp	x2, x3, [sp], #16
    20002cac:	d5184003 	msr	spsr_el1, x3
    20002cb0:	d5184022 	msr	elr_el1, x2
    20002cb4:	a8c17ffe 	ldp	x30, xzr, [sp], #16
    20002cb8:	a8c177fc 	ldp	x28, x29, [sp], #16
    20002cbc:	a8c16ffa 	ldp	x26, x27, [sp], #16
    20002cc0:	a8c167f8 	ldp	x24, x25, [sp], #16
    20002cc4:	a8c15ff6 	ldp	x22, x23, [sp], #16
    20002cc8:	a8c157f4 	ldp	x20, x21, [sp], #16
    20002ccc:	a8c14ff2 	ldp	x18, x19, [sp], #16
    20002cd0:	a8c147f0 	ldp	x16, x17, [sp], #16
    20002cd4:	a8c13fee 	ldp	x14, x15, [sp], #16
    20002cd8:	a8c137ec 	ldp	x12, x13, [sp], #16
    20002cdc:	a8c12fea 	ldp	x10, x11, [sp], #16
    20002ce0:	a8c127e8 	ldp	x8, x9, [sp], #16
    20002ce4:	a8c11fe6 	ldp	x6, x7, [sp], #16
    20002ce8:	a8c117e4 	ldp	x4, x5, [sp], #16
    20002cec:	a8c10fe2 	ldp	x2, x3, [sp], #16
    20002cf0:	a8c107e0 	ldp	x0, x1, [sp], #16
    20002cf4:	d50041bf 	msr	spsel, #0x1
    20002cf8:	d69f03e0 	eret
    20002cfc:	d503201f 	nop

0000000020002d00 <FreeRTOS_IRQ_Handler>:
    20002d00:	a9bf07e0 	stp	x0, x1, [sp, #-16]!
    20002d04:	a9bf0fe2 	stp	x2, x3, [sp, #-16]!
    20002d08:	a9bf17e4 	stp	x4, x5, [sp, #-16]!
    20002d0c:	a9bf1fe6 	stp	x6, x7, [sp, #-16]!
    20002d10:	a9bf27e8 	stp	x8, x9, [sp, #-16]!
    20002d14:	a9bf2fea 	stp	x10, x11, [sp, #-16]!
    20002d18:	a9bf37ec 	stp	x12, x13, [sp, #-16]!
    20002d1c:	a9bf3fee 	stp	x14, x15, [sp, #-16]!
    20002d20:	a9bf47f0 	stp	x16, x17, [sp, #-16]!
    20002d24:	a9bf4ff2 	stp	x18, x19, [sp, #-16]!
    20002d28:	a9bf7bfd 	stp	x29, x30, [sp, #-16]!
    20002d2c:	d5384003 	mrs	x3, spsr_el1
    20002d30:	d5384022 	mrs	x2, elr_el1
    20002d34:	a9bf0fe2 	stp	x2, x3, [sp, #-16]!
    20002d38:	58001e45 	ldr	x5, 20003100 <ullPortInterruptNestingConst>
    20002d3c:	f94000a1 	ldr	x1, [x5]
    20002d40:	91000426 	add	x6, x1, #0x1
    20002d44:	f90000a6 	str	x6, [x5]
    20002d48:	a9bf17e1 	stp	x1, x5, [sp, #-16]!
    20002d4c:	58001e22 	ldr	x2, 20003110 <ullICCIARConst>
    20002d50:	f9400043 	ldr	x3, [x2]
    20002d54:	b9400060 	ldr	w0, [x3]
    20002d58:	a9bf07e0 	stp	x0, x1, [sp, #-16]!
    20002d5c:	97fffaed 	bl	20001910 <vApplicationIRQHandler>
    20002d60:	d50342df 	msr	daifset, #0x2
    20002d64:	d5033f9f 	dsb	sy
    20002d68:	d5033fdf 	isb
    20002d6c:	a8c107e0 	ldp	x0, x1, [sp], #16
    20002d70:	58001d44 	ldr	x4, 20003118 <ullICCEOIRConst>
    20002d74:	f9400084 	ldr	x4, [x4]
    20002d78:	b9000080 	str	w0, [x4]
    20002d7c:	a8c117e1 	ldp	x1, x5, [sp], #16
    20002d80:	f90000a1 	str	x1, [x5]
    20002d84:	f100003f 	cmp	x1, #0x0
    20002d88:	54001061 	b.ne	20002f94 <Exit_IRQ_No_Context_Switch>  // b.any
    20002d8c:	58001be0 	ldr	x0, 20003108 <ullPortYieldRequiredConst>
    20002d90:	f9400001 	ldr	x1, [x0]
    20002d94:	f100003f 	cmp	x1, #0x0
    20002d98:	54000fe0 	b.eq	20002f94 <Exit_IRQ_No_Context_Switch>  // b.none
    20002d9c:	d2800002 	mov	x2, #0x0                   	// #0
    20002da0:	f9000002 	str	x2, [x0]
    20002da4:	a8c117e4 	ldp	x4, x5, [sp], #16
    20002da8:	d5184005 	msr	spsr_el1, x5
    20002dac:	d5184024 	msr	elr_el1, x4
    20002db0:	d5033f9f 	dsb	sy
    20002db4:	d5033fdf 	isb
    20002db8:	a8c17bfd 	ldp	x29, x30, [sp], #16
    20002dbc:	a8c14ff2 	ldp	x18, x19, [sp], #16
    20002dc0:	a8c147f0 	ldp	x16, x17, [sp], #16
    20002dc4:	a8c13fee 	ldp	x14, x15, [sp], #16
    20002dc8:	a8c137ec 	ldp	x12, x13, [sp], #16
    20002dcc:	a8c12fea 	ldp	x10, x11, [sp], #16
    20002dd0:	a8c127e8 	ldp	x8, x9, [sp], #16
    20002dd4:	a8c11fe6 	ldp	x6, x7, [sp], #16
    20002dd8:	a8c117e4 	ldp	x4, x5, [sp], #16
    20002ddc:	a8c10fe2 	ldp	x2, x3, [sp], #16
    20002de0:	a8c107e0 	ldp	x0, x1, [sp], #16
    20002de4:	d50040bf 	msr	spsel, #0x0
    20002de8:	a9bf07e0 	stp	x0, x1, [sp, #-16]!
    20002dec:	a9bf0fe2 	stp	x2, x3, [sp, #-16]!
    20002df0:	a9bf17e4 	stp	x4, x5, [sp, #-16]!
    20002df4:	a9bf1fe6 	stp	x6, x7, [sp, #-16]!
    20002df8:	a9bf27e8 	stp	x8, x9, [sp, #-16]!
    20002dfc:	a9bf2fea 	stp	x10, x11, [sp, #-16]!
    20002e00:	a9bf37ec 	stp	x12, x13, [sp, #-16]!
    20002e04:	a9bf3fee 	stp	x14, x15, [sp, #-16]!
    20002e08:	a9bf47f0 	stp	x16, x17, [sp, #-16]!
    20002e0c:	a9bf4ff2 	stp	x18, x19, [sp, #-16]!
    20002e10:	a9bf57f4 	stp	x20, x21, [sp, #-16]!
    20002e14:	a9bf5ff6 	stp	x22, x23, [sp, #-16]!
    20002e18:	a9bf67f8 	stp	x24, x25, [sp, #-16]!
    20002e1c:	a9bf6ffa 	stp	x26, x27, [sp, #-16]!
    20002e20:	a9bf77fc 	stp	x28, x29, [sp, #-16]!
    20002e24:	a9bf7ffe 	stp	x30, xzr, [sp, #-16]!
    20002e28:	d5384003 	mrs	x3, spsr_el1
    20002e2c:	d5384022 	mrs	x2, elr_el1
    20002e30:	a9bf0fe2 	stp	x2, x3, [sp, #-16]!
    20002e34:	58000ea0 	ldr	x0, 20003008 <ullCriticalNestingConst>
    20002e38:	f9400003 	ldr	x3, [x0]
    20002e3c:	58000ea0 	ldr	x0, 20003010 <ullPortTaskHasFPUContextConst>
    20002e40:	f9400002 	ldr	x2, [x0]
    20002e44:	f100005f 	cmp	x2, #0x0
    20002e48:	54000220 	b.eq	20002e8c <FreeRTOS_IRQ_Handler+0x18c>  // b.none
    20002e4c:	adbf07e0 	stp	q0, q1, [sp, #-32]!
    20002e50:	adbf0fe2 	stp	q2, q3, [sp, #-32]!
    20002e54:	adbf17e4 	stp	q4, q5, [sp, #-32]!
    20002e58:	adbf1fe6 	stp	q6, q7, [sp, #-32]!
    20002e5c:	adbf27e8 	stp	q8, q9, [sp, #-32]!
    20002e60:	adbf2fea 	stp	q10, q11, [sp, #-32]!
    20002e64:	adbf37ec 	stp	q12, q13, [sp, #-32]!
    20002e68:	adbf3fee 	stp	q14, q15, [sp, #-32]!
    20002e6c:	adbf47f0 	stp	q16, q17, [sp, #-32]!
    20002e70:	adbf4ff2 	stp	q18, q19, [sp, #-32]!
    20002e74:	adbf57f4 	stp	q20, q21, [sp, #-32]!
    20002e78:	adbf5ff6 	stp	q22, q23, [sp, #-32]!
    20002e7c:	adbf67f8 	stp	q24, q25, [sp, #-32]!
    20002e80:	adbf6ffa 	stp	q26, q27, [sp, #-32]!
    20002e84:	adbf77fc 	stp	q28, q29, [sp, #-32]!
    20002e88:	adbf7ffe 	stp	q30, q31, [sp, #-32]!
    20002e8c:	a9bf0fe2 	stp	x2, x3, [sp, #-16]!
    20002e90:	58000b80 	ldr	x0, 20003000 <pxCurrentTCBConst>
    20002e94:	f9400001 	ldr	x1, [x0]
    20002e98:	910003e0 	mov	x0, sp
    20002e9c:	f9000020 	str	x0, [x1]
    20002ea0:	d50041bf 	msr	spsel, #0x1
    20002ea4:	940007a7 	bl	20004d40 <vTaskSwitchContext>
    20002ea8:	d50040bf 	msr	spsel, #0x0
    20002eac:	58000aa0 	ldr	x0, 20003000 <pxCurrentTCBConst>
    20002eb0:	f9400001 	ldr	x1, [x0]
    20002eb4:	f9400020 	ldr	x0, [x1]
    20002eb8:	9100001f 	mov	sp, x0
    20002ebc:	a8c10fe2 	ldp	x2, x3, [sp], #16
    20002ec0:	58000a40 	ldr	x0, 20003008 <ullCriticalNestingConst>
    20002ec4:	d2801fe1 	mov	x1, #0xff                  	// #255
    20002ec8:	58000a84 	ldr	x4, 20003018 <ullICCPMRConst>
    20002ecc:	f100007f 	cmp	x3, #0x0
    20002ed0:	f9400085 	ldr	x5, [x4]
    20002ed4:	54000060 	b.eq	20002ee0 <FreeRTOS_IRQ_Handler+0x1e0>  // b.none
    20002ed8:	58000a46 	ldr	x6, 20003020 <ullMaxAPIPriorityMaskConst>
    20002edc:	f94000c1 	ldr	x1, [x6]
    20002ee0:	b90000a1 	str	w1, [x5]
    20002ee4:	d5033f9f 	dsb	sy
    20002ee8:	d5033fdf 	isb
    20002eec:	f9000003 	str	x3, [x0]
    20002ef0:	58000900 	ldr	x0, 20003010 <ullPortTaskHasFPUContextConst>
    20002ef4:	f9000002 	str	x2, [x0]
    20002ef8:	f100005f 	cmp	x2, #0x0
    20002efc:	54000220 	b.eq	20002f40 <FreeRTOS_IRQ_Handler+0x240>  // b.none
    20002f00:	acc17ffe 	ldp	q30, q31, [sp], #32
    20002f04:	acc177fc 	ldp	q28, q29, [sp], #32
    20002f08:	acc16ffa 	ldp	q26, q27, [sp], #32
    20002f0c:	acc167f8 	ldp	q24, q25, [sp], #32
    20002f10:	acc15ff6 	ldp	q22, q23, [sp], #32
    20002f14:	acc157f4 	ldp	q20, q21, [sp], #32
    20002f18:	acc14ff2 	ldp	q18, q19, [sp], #32
    20002f1c:	acc147f0 	ldp	q16, q17, [sp], #32
    20002f20:	acc13fee 	ldp	q14, q15, [sp], #32
    20002f24:	acc137ec 	ldp	q12, q13, [sp], #32
    20002f28:	acc12fea 	ldp	q10, q11, [sp], #32
    20002f2c:	acc127e8 	ldp	q8, q9, [sp], #32
    20002f30:	acc11fe6 	ldp	q6, q7, [sp], #32
    20002f34:	acc117e4 	ldp	q4, q5, [sp], #32
    20002f38:	acc10fe2 	ldp	q2, q3, [sp], #32
    20002f3c:	acc107e0 	ldp	q0, q1, [sp], #32
    20002f40:	a8c10fe2 	ldp	x2, x3, [sp], #16
    20002f44:	d5184003 	msr	spsr_el1, x3
    20002f48:	d5184022 	msr	elr_el1, x2
    20002f4c:	a8c17ffe 	ldp	x30, xzr, [sp], #16
    20002f50:	a8c177fc 	ldp	x28, x29, [sp], #16
    20002f54:	a8c16ffa 	ldp	x26, x27, [sp], #16
    20002f58:	a8c167f8 	ldp	x24, x25, [sp], #16
    20002f5c:	a8c15ff6 	ldp	x22, x23, [sp], #16
    20002f60:	a8c157f4 	ldp	x20, x21, [sp], #16
    20002f64:	a8c14ff2 	ldp	x18, x19, [sp], #16
    20002f68:	a8c147f0 	ldp	x16, x17, [sp], #16
    20002f6c:	a8c13fee 	ldp	x14, x15, [sp], #16
    20002f70:	a8c137ec 	ldp	x12, x13, [sp], #16
    20002f74:	a8c12fea 	ldp	x10, x11, [sp], #16
    20002f78:	a8c127e8 	ldp	x8, x9, [sp], #16
    20002f7c:	a8c11fe6 	ldp	x6, x7, [sp], #16
    20002f80:	a8c117e4 	ldp	x4, x5, [sp], #16
    20002f84:	a8c10fe2 	ldp	x2, x3, [sp], #16
    20002f88:	a8c107e0 	ldp	x0, x1, [sp], #16
    20002f8c:	d50041bf 	msr	spsel, #0x1
    20002f90:	d69f03e0 	eret

0000000020002f94 <Exit_IRQ_No_Context_Switch>:
    20002f94:	a8c117e4 	ldp	x4, x5, [sp], #16
    20002f98:	d5184005 	msr	spsr_el1, x5
    20002f9c:	d5184024 	msr	elr_el1, x4
    20002fa0:	d5033f9f 	dsb	sy
    20002fa4:	d5033fdf 	isb
    20002fa8:	a8c17bfd 	ldp	x29, x30, [sp], #16
    20002fac:	a8c14ff2 	ldp	x18, x19, [sp], #16
    20002fb0:	a8c147f0 	ldp	x16, x17, [sp], #16
    20002fb4:	a8c13fee 	ldp	x14, x15, [sp], #16
    20002fb8:	a8c137ec 	ldp	x12, x13, [sp], #16
    20002fbc:	a8c12fea 	ldp	x10, x11, [sp], #16
    20002fc0:	a8c127e8 	ldp	x8, x9, [sp], #16
    20002fc4:	a8c11fe6 	ldp	x6, x7, [sp], #16
    20002fc8:	a8c117e4 	ldp	x4, x5, [sp], #16
    20002fcc:	a8c10fe2 	ldp	x2, x3, [sp], #16
    20002fd0:	a8c107e0 	ldp	x0, x1, [sp], #16
    20002fd4:	d69f03e0 	eret
    20002fd8:	d503201f 	nop
    20002fdc:	d503201f 	nop
    20002fe0:	d503201f 	nop
    20002fe4:	d503201f 	nop
    20002fe8:	d503201f 	nop
    20002fec:	d503201f 	nop
    20002ff0:	d503201f 	nop
    20002ff4:	d503201f 	nop
    20002ff8:	d503201f 	nop
    20002ffc:	d503201f 	nop

0000000020003000 <pxCurrentTCBConst>:
    20003000:	20008990 	.word	0x20008990
    20003004:	00000000 	.word	0x00000000

0000000020003008 <ullCriticalNestingConst>:
    20003008:	200070a0 	.word	0x200070a0
    2000300c:	00000000 	.word	0x00000000

0000000020003010 <ullPortTaskHasFPUContextConst>:
    20003010:	20008738 	.word	0x20008738
    20003014:	00000000 	.word	0x00000000

0000000020003018 <ullICCPMRConst>:
    20003018:	20006480 	.word	0x20006480
    2000301c:	00000000 	.word	0x00000000

0000000020003020 <ullMaxAPIPriorityMaskConst>:
    20003020:	20006478 	.word	0x20006478
    20003024:	00000000 	.word	0x00000000

0000000020003028 <vApplicationIRQHandlerConst>:
    20003028:	20001910 	.word	0x20001910
    2000302c:	d503201f 	nop
    20003030:	d503201f 	nop
    20003034:	d503201f 	nop
    20003038:	d503201f 	nop
    2000303c:	d503201f 	nop
    20003040:	d503201f 	nop
    20003044:	d503201f 	nop
    20003048:	d503201f 	nop
    2000304c:	d503201f 	nop
    20003050:	d503201f 	nop
    20003054:	d503201f 	nop
    20003058:	d503201f 	nop
    2000305c:	d503201f 	nop
    20003060:	d503201f 	nop
    20003064:	d503201f 	nop
    20003068:	d503201f 	nop
    2000306c:	d503201f 	nop
    20003070:	d503201f 	nop
    20003074:	d503201f 	nop
    20003078:	d503201f 	nop
    2000307c:	d503201f 	nop
    20003080:	d503201f 	nop
    20003084:	d503201f 	nop
    20003088:	d503201f 	nop
    2000308c:	d503201f 	nop
    20003090:	d503201f 	nop
    20003094:	d503201f 	nop
    20003098:	d503201f 	nop
    2000309c:	d503201f 	nop
    200030a0:	d503201f 	nop
    200030a4:	d503201f 	nop
    200030a8:	d503201f 	nop
    200030ac:	d503201f 	nop
    200030b0:	d503201f 	nop
    200030b4:	d503201f 	nop
    200030b8:	d503201f 	nop
    200030bc:	d503201f 	nop
    200030c0:	d503201f 	nop
    200030c4:	d503201f 	nop
    200030c8:	d503201f 	nop
    200030cc:	d503201f 	nop
    200030d0:	d503201f 	nop
    200030d4:	d503201f 	nop
    200030d8:	d503201f 	nop
    200030dc:	d503201f 	nop
    200030e0:	d503201f 	nop
    200030e4:	d503201f 	nop
    200030e8:	d503201f 	nop
    200030ec:	d503201f 	nop
    200030f0:	d503201f 	nop
    200030f4:	d503201f 	nop
    200030f8:	d503201f 	nop
    200030fc:	d503201f 	nop

0000000020003100 <ullPortInterruptNestingConst>:
    20003100:	20008728 	.word	0x20008728
    20003104:	00000000 	.word	0x00000000

0000000020003108 <ullPortYieldRequiredConst>:
    20003108:	20008730 	.word	0x20008730
    2000310c:	00000000 	.word	0x00000000

0000000020003110 <ullICCIARConst>:
    20003110:	20006488 	.word	0x20006488
    20003114:	00000000 	.word	0x00000000

0000000020003118 <ullICCEOIRConst>:
    20003118:	20006490 	.word	0x20006490
    2000311c:	00000000 	.word	0x00000000
    20003120:	20001000 	.word	0x20001000
	...

0000000020003130 <vListInitialise>:
    20003130:	91004001 	add	x1, x0, #0x10
    20003134:	92800002 	mov	x2, #0xffffffffffffffff    	// #-1
    20003138:	f900001f 	str	xzr, [x0]
    2000313c:	a9008801 	stp	x1, x2, [x0, #8]
    20003140:	a9018401 	stp	x1, x1, [x0, #24]
    20003144:	d65f03c0 	ret
    20003148:	d503201f 	nop
    2000314c:	d503201f 	nop

0000000020003150 <vListInitialiseItem>:
    20003150:	f900101f 	str	xzr, [x0, #32]
    20003154:	d65f03c0 	ret
    20003158:	d503201f 	nop
    2000315c:	d503201f 	nop

0000000020003160 <vListInsertEnd>:
    20003160:	f9400403 	ldr	x3, [x0, #8]
    20003164:	f9400002 	ldr	x2, [x0]
    20003168:	f9400864 	ldr	x4, [x3, #16]
    2000316c:	91000442 	add	x2, x2, #0x1
    20003170:	a9009023 	stp	x3, x4, [x1, #8]
    20003174:	f9000481 	str	x1, [x4, #8]
    20003178:	f9000861 	str	x1, [x3, #16]
    2000317c:	f9001020 	str	x0, [x1, #32]
    20003180:	f9000002 	str	x2, [x0]
    20003184:	d65f03c0 	ret
    20003188:	d503201f 	nop
    2000318c:	d503201f 	nop

0000000020003190 <vListInsert>:
    20003190:	f9400025 	ldr	x5, [x1]
    20003194:	91004002 	add	x2, x0, #0x10
    20003198:	b10004bf 	cmn	x5, #0x1
    2000319c:	540001e0 	b.eq	200031d8 <vListInsert+0x48>  // b.none
    200031a0:	aa0203e4 	mov	x4, x2
    200031a4:	f9400442 	ldr	x2, [x2, #8]
    200031a8:	f9400043 	ldr	x3, [x2]
    200031ac:	eb05007f 	cmp	x3, x5
    200031b0:	54ffff89 	b.ls	200031a0 <vListInsert+0x10>  // b.plast
    200031b4:	f9400003 	ldr	x3, [x0]
    200031b8:	f9000422 	str	x2, [x1, #8]
    200031bc:	f9000841 	str	x1, [x2, #16]
    200031c0:	f9000824 	str	x4, [x1, #16]
    200031c4:	f9000481 	str	x1, [x4, #8]
    200031c8:	91000462 	add	x2, x3, #0x1
    200031cc:	f9001020 	str	x0, [x1, #32]
    200031d0:	f9000002 	str	x2, [x0]
    200031d4:	d65f03c0 	ret
    200031d8:	f9401004 	ldr	x4, [x0, #32]
    200031dc:	f9400482 	ldr	x2, [x4, #8]
    200031e0:	17fffff5 	b	200031b4 <vListInsert+0x24>
    200031e4:	d503201f 	nop
    200031e8:	d503201f 	nop
    200031ec:	d503201f 	nop

00000000200031f0 <uxListRemove>:
    200031f0:	f9401001 	ldr	x1, [x0, #32]
    200031f4:	a9408803 	ldp	x3, x2, [x0, #8]
    200031f8:	f9400424 	ldr	x4, [x1, #8]
    200031fc:	f9000862 	str	x2, [x3, #16]
    20003200:	f9000443 	str	x3, [x2, #8]
    20003204:	eb00009f 	cmp	x4, x0
    20003208:	540000e0 	b.eq	20003224 <uxListRemove+0x34>  // b.none
    2000320c:	f9400022 	ldr	x2, [x1]
    20003210:	f900101f 	str	xzr, [x0, #32]
    20003214:	d1000440 	sub	x0, x2, #0x1
    20003218:	f9000020 	str	x0, [x1]
    2000321c:	f9400020 	ldr	x0, [x1]
    20003220:	d65f03c0 	ret
    20003224:	f9000422 	str	x2, [x1, #8]
    20003228:	f9400022 	ldr	x2, [x1]
    2000322c:	f900101f 	str	xzr, [x0, #32]
    20003230:	d1000440 	sub	x0, x2, #0x1
    20003234:	f9000020 	str	x0, [x1]
    20003238:	f9400020 	ldr	x0, [x1]
    2000323c:	d65f03c0 	ret

0000000020003240 <prvCopyDataToQueue>:
    20003240:	a9bd7bfd 	stp	x29, x30, [sp, #-48]!
    20003244:	910003fd 	mov	x29, sp
    20003248:	a90153f3 	stp	x19, x20, [sp, #16]
    2000324c:	aa0003f3 	mov	x19, x0
    20003250:	f9403814 	ldr	x20, [x0, #112]
    20003254:	f90013f5 	str	x21, [sp, #32]
    20003258:	aa0203f5 	mov	x21, x2
    2000325c:	f9404002 	ldr	x2, [x0, #128]
    20003260:	b5000142 	cbnz	x2, 20003288 <prvCopyDataToQueue+0x48>
    20003264:	f9400261 	ldr	x1, [x19]
    20003268:	91000694 	add	x20, x20, #0x1
    2000326c:	d2800000 	mov	x0, #0x0                   	// #0
    20003270:	b4000541 	cbz	x1, 20003318 <prvCopyDataToQueue+0xd8>
    20003274:	f94013f5 	ldr	x21, [sp, #32]
    20003278:	f9003a74 	str	x20, [x19, #112]
    2000327c:	a94153f3 	ldp	x19, x20, [sp, #16]
    20003280:	a8c37bfd 	ldp	x29, x30, [sp], #48
    20003284:	d65f03c0 	ret
    20003288:	b5000255 	cbnz	x21, 200032d0 <prvCopyDataToQueue+0x90>
    2000328c:	f9400400 	ldr	x0, [x0, #8]
    20003290:	91000694 	add	x20, x20, #0x1
    20003294:	97fffc4b 	bl	200023c0 <memcpy>
    20003298:	a9408660 	ldp	x0, x1, [x19, #8]
    2000329c:	f9404262 	ldr	x2, [x19, #128]
    200032a0:	8b020000 	add	x0, x0, x2
    200032a4:	eb01001f 	cmp	x0, x1
    200032a8:	f9000660 	str	x0, [x19, #8]
    200032ac:	54000063 	b.cc	200032b8 <prvCopyDataToQueue+0x78>  // b.lo, b.ul, b.last
    200032b0:	f9400260 	ldr	x0, [x19]
    200032b4:	f9000660 	str	x0, [x19, #8]
    200032b8:	d2800000 	mov	x0, #0x0                   	// #0
    200032bc:	f94013f5 	ldr	x21, [sp, #32]
    200032c0:	f9003a74 	str	x20, [x19, #112]
    200032c4:	a94153f3 	ldp	x19, x20, [sp, #16]
    200032c8:	a8c37bfd 	ldp	x29, x30, [sp], #48
    200032cc:	d65f03c0 	ret
    200032d0:	f9400c00 	ldr	x0, [x0, #24]
    200032d4:	97fffc3b 	bl	200023c0 <memcpy>
    200032d8:	f9400e60 	ldr	x0, [x19, #24]
    200032dc:	f9404261 	ldr	x1, [x19, #128]
    200032e0:	f9400262 	ldr	x2, [x19]
    200032e4:	cb010000 	sub	x0, x0, x1
    200032e8:	cb0103e1 	neg	x1, x1
    200032ec:	eb02001f 	cmp	x0, x2
    200032f0:	f9000e60 	str	x0, [x19, #24]
    200032f4:	54000082 	b.cs	20003304 <prvCopyDataToQueue+0xc4>  // b.hs, b.nlast
    200032f8:	f9400a60 	ldr	x0, [x19, #16]
    200032fc:	8b010000 	add	x0, x0, x1
    20003300:	f9000e60 	str	x0, [x19, #24]
    20003304:	f1000abf 	cmp	x21, #0x2
    20003308:	54000100 	b.eq	20003328 <prvCopyDataToQueue+0xe8>  // b.none
    2000330c:	91000694 	add	x20, x20, #0x1
    20003310:	d2800000 	mov	x0, #0x0                   	// #0
    20003314:	17ffffea 	b	200032bc <prvCopyDataToQueue+0x7c>
    20003318:	f9400a60 	ldr	x0, [x19, #16]
    2000331c:	940007f1 	bl	200052e0 <xTaskPriorityDisinherit>
    20003320:	f9000a7f 	str	xzr, [x19, #16]
    20003324:	17ffffd4 	b	20003274 <prvCopyDataToQueue+0x34>
    20003328:	f100029f 	cmp	x20, #0x0
    2000332c:	d2800000 	mov	x0, #0x0                   	// #0
    20003330:	9a9f1694 	csinc	x20, x20, xzr, ne	// ne = any
    20003334:	17ffffd0 	b	20003274 <prvCopyDataToQueue+0x34>
    20003338:	d503201f 	nop
    2000333c:	d503201f 	nop

0000000020003340 <prvUnlockQueue>:
    20003340:	a9bd7bfd 	stp	x29, x30, [sp, #-48]!
    20003344:	910003fd 	mov	x29, sp
    20003348:	a90153f3 	stp	x19, x20, [sp, #16]
    2000334c:	aa0003f4 	mov	x20, x0
    20003350:	f90013f5 	str	x21, [sp, #32]
    20003354:	97fffd9f 	bl	200029d0 <vPortEnterCritical>
    20003358:	39422681 	ldrb	w1, [x20, #137]
    2000335c:	13001c33 	sxtb	w19, w1
    20003360:	7100027f 	cmp	w19, #0x0
    20003364:	5400022d 	b.le	200033a8 <prvUnlockQueue+0x68>
    20003368:	91012295 	add	x21, x20, #0x48
    2000336c:	14000005 	b	20003380 <prvUnlockQueue+0x40>
    20003370:	51000661 	sub	w1, w19, #0x1
    20003374:	72001c3f 	tst	w1, #0xff
    20003378:	13001c33 	sxtb	w19, w1
    2000337c:	54000160 	b.eq	200033a8 <prvUnlockQueue+0x68>  // b.none
    20003380:	f9402681 	ldr	x1, [x20, #72]
    20003384:	aa1503e0 	mov	x0, x21
    20003388:	b4000101 	cbz	x1, 200033a8 <prvUnlockQueue+0x68>
    2000338c:	940006c5 	bl	20004ea0 <xTaskRemoveFromEventList>
    20003390:	b4ffff00 	cbz	x0, 20003370 <prvUnlockQueue+0x30>
    20003394:	94000753 	bl	200050e0 <vTaskMissedYield>
    20003398:	51000661 	sub	w1, w19, #0x1
    2000339c:	72001c3f 	tst	w1, #0xff
    200033a0:	13001c33 	sxtb	w19, w1
    200033a4:	54fffee1 	b.ne	20003380 <prvUnlockQueue+0x40>  // b.any
    200033a8:	12800000 	mov	w0, #0xffffffff            	// #-1
    200033ac:	39022680 	strb	w0, [x20, #137]
    200033b0:	97fffd24 	bl	20002840 <vPortExitCritical>
    200033b4:	97fffd87 	bl	200029d0 <vPortEnterCritical>
    200033b8:	39422281 	ldrb	w1, [x20, #136]
    200033bc:	13001c33 	sxtb	w19, w1
    200033c0:	7100027f 	cmp	w19, #0x0
    200033c4:	5400022d 	b.le	20003408 <prvUnlockQueue+0xc8>
    200033c8:	91008295 	add	x21, x20, #0x20
    200033cc:	14000005 	b	200033e0 <prvUnlockQueue+0xa0>
    200033d0:	51000661 	sub	w1, w19, #0x1
    200033d4:	72001c3f 	tst	w1, #0xff
    200033d8:	13001c33 	sxtb	w19, w1
    200033dc:	54000160 	b.eq	20003408 <prvUnlockQueue+0xc8>  // b.none
    200033e0:	f9401281 	ldr	x1, [x20, #32]
    200033e4:	aa1503e0 	mov	x0, x21
    200033e8:	b4000101 	cbz	x1, 20003408 <prvUnlockQueue+0xc8>
    200033ec:	940006ad 	bl	20004ea0 <xTaskRemoveFromEventList>
    200033f0:	b4ffff00 	cbz	x0, 200033d0 <prvUnlockQueue+0x90>
    200033f4:	9400073b 	bl	200050e0 <vTaskMissedYield>
    200033f8:	51000661 	sub	w1, w19, #0x1
    200033fc:	72001c3f 	tst	w1, #0xff
    20003400:	13001c33 	sxtb	w19, w1
    20003404:	54fffee1 	b.ne	200033e0 <prvUnlockQueue+0xa0>  // b.any
    20003408:	12800000 	mov	w0, #0xffffffff            	// #-1
    2000340c:	39022280 	strb	w0, [x20, #136]
    20003410:	a94153f3 	ldp	x19, x20, [sp, #16]
    20003414:	f94013f5 	ldr	x21, [sp, #32]
    20003418:	a8c37bfd 	ldp	x29, x30, [sp], #48
    2000341c:	17fffd09 	b	20002840 <vPortExitCritical>

0000000020003420 <xQueueGenericReset>:
    20003420:	a9be7bfd 	stp	x29, x30, [sp, #-32]!
    20003424:	910003fd 	mov	x29, sp
    20003428:	a90153f3 	stp	x19, x20, [sp, #16]
    2000342c:	aa0003f3 	mov	x19, x0
    20003430:	aa0103f4 	mov	x20, x1
    20003434:	97fffd67 	bl	200029d0 <vPortEnterCritical>
    20003438:	a9478e60 	ldp	x0, x3, [x19, #120]
    2000343c:	12800004 	mov	w4, #0xffffffff            	// #-1
    20003440:	f9003a7f 	str	xzr, [x19, #112]
    20003444:	f9400262 	ldr	x2, [x19]
    20003448:	d1000401 	sub	x1, x0, #0x1
    2000344c:	39022264 	strb	w4, [x19, #136]
    20003450:	39022664 	strb	w4, [x19, #137]
    20003454:	9b030800 	madd	x0, x0, x3, x2
    20003458:	9b030821 	madd	x1, x1, x3, x2
    2000345c:	a9008262 	stp	x2, x0, [x19, #8]
    20003460:	f9000e61 	str	x1, [x19, #24]
    20003464:	b5000234 	cbnz	x20, 200034a8 <xQueueGenericReset+0x88>
    20003468:	f9401260 	ldr	x0, [x19, #32]
    2000346c:	b50000c0 	cbnz	x0, 20003484 <xQueueGenericReset+0x64>
    20003470:	97fffcf4 	bl	20002840 <vPortExitCritical>
    20003474:	a94153f3 	ldp	x19, x20, [sp, #16]
    20003478:	d2800020 	mov	x0, #0x1                   	// #1
    2000347c:	a8c27bfd 	ldp	x29, x30, [sp], #32
    20003480:	d65f03c0 	ret
    20003484:	91008260 	add	x0, x19, #0x20
    20003488:	94000686 	bl	20004ea0 <xTaskRemoveFromEventList>
    2000348c:	b4ffff20 	cbz	x0, 20003470 <xQueueGenericReset+0x50>
    20003490:	d4000001 	svc	#0x0
    20003494:	97fffceb 	bl	20002840 <vPortExitCritical>
    20003498:	a94153f3 	ldp	x19, x20, [sp, #16]
    2000349c:	d2800020 	mov	x0, #0x1                   	// #1
    200034a0:	a8c27bfd 	ldp	x29, x30, [sp], #32
    200034a4:	d65f03c0 	ret
    200034a8:	91008260 	add	x0, x19, #0x20
    200034ac:	97ffff21 	bl	20003130 <vListInitialise>
    200034b0:	91012260 	add	x0, x19, #0x48
    200034b4:	97ffff1f 	bl	20003130 <vListInitialise>
    200034b8:	97fffce2 	bl	20002840 <vPortExitCritical>
    200034bc:	a94153f3 	ldp	x19, x20, [sp, #16]
    200034c0:	d2800020 	mov	x0, #0x1                   	// #1
    200034c4:	a8c27bfd 	ldp	x29, x30, [sp], #32
    200034c8:	d65f03c0 	ret
    200034cc:	d503201f 	nop

00000000200034d0 <xQueueGenericCreate>:
    200034d0:	a9bd7bfd 	stp	x29, x30, [sp, #-48]!
    200034d4:	910003fd 	mov	x29, sp
    200034d8:	f90013f5 	str	x21, [sp, #32]
    200034dc:	aa0003f5 	mov	x21, x0
    200034e0:	9b017c00 	mul	x0, x0, x1
    200034e4:	a90153f3 	stp	x19, x20, [sp, #16]
    200034e8:	aa0103f4 	mov	x20, x1
    200034ec:	91024000 	add	x0, x0, #0x90
    200034f0:	94000b50 	bl	20006230 <pvPortMalloc>
    200034f4:	aa0003f3 	mov	x19, x0
    200034f8:	b4000100 	cbz	x0, 20003518 <xQueueGenericCreate+0x48>
    200034fc:	f100029f 	cmp	x20, #0x0
    20003500:	91024002 	add	x2, x0, #0x90
    20003504:	9a801042 	csel	x2, x2, x0, ne	// ne = any
    20003508:	d2800021 	mov	x1, #0x1                   	// #1
    2000350c:	f9000002 	str	x2, [x0]
    20003510:	a907d015 	stp	x21, x20, [x0, #120]
    20003514:	97ffffc3 	bl	20003420 <xQueueGenericReset>
    20003518:	f94013f5 	ldr	x21, [sp, #32]
    2000351c:	aa1303e0 	mov	x0, x19
    20003520:	a94153f3 	ldp	x19, x20, [sp, #16]
    20003524:	a8c37bfd 	ldp	x29, x30, [sp], #48
    20003528:	d65f03c0 	ret
    2000352c:	d503201f 	nop

0000000020003530 <xQueueGetMutexHolder>:
    20003530:	a9be7bfd 	stp	x29, x30, [sp, #-32]!
    20003534:	910003fd 	mov	x29, sp
    20003538:	f9000bf3 	str	x19, [sp, #16]
    2000353c:	aa0003f3 	mov	x19, x0
    20003540:	97fffd24 	bl	200029d0 <vPortEnterCritical>
    20003544:	f9400260 	ldr	x0, [x19]
    20003548:	b50000e0 	cbnz	x0, 20003564 <xQueueGetMutexHolder+0x34>
    2000354c:	f9400a73 	ldr	x19, [x19, #16]
    20003550:	97fffcbc 	bl	20002840 <vPortExitCritical>
    20003554:	aa1303e0 	mov	x0, x19
    20003558:	f9400bf3 	ldr	x19, [sp, #16]
    2000355c:	a8c27bfd 	ldp	x29, x30, [sp], #32
    20003560:	d65f03c0 	ret
    20003564:	97fffcb7 	bl	20002840 <vPortExitCritical>
    20003568:	d2800013 	mov	x19, #0x0                   	// #0
    2000356c:	aa1303e0 	mov	x0, x19
    20003570:	f9400bf3 	ldr	x19, [sp, #16]
    20003574:	a8c27bfd 	ldp	x29, x30, [sp], #32
    20003578:	d65f03c0 	ret
    2000357c:	d503201f 	nop

0000000020003580 <xQueueGetMutexHolderFromISR>:
    20003580:	f9400001 	ldr	x1, [x0]
    20003584:	b5000061 	cbnz	x1, 20003590 <xQueueGetMutexHolderFromISR+0x10>
    20003588:	f9400800 	ldr	x0, [x0, #16]
    2000358c:	d65f03c0 	ret
    20003590:	d2800000 	mov	x0, #0x0                   	// #0
    20003594:	d65f03c0 	ret
    20003598:	d503201f 	nop
    2000359c:	d503201f 	nop

00000000200035a0 <xQueueGenericSend>:
    200035a0:	a9b97bfd 	stp	x29, x30, [sp, #-112]!
    200035a4:	f100087f 	cmp	x3, #0x2
    200035a8:	910003fd 	mov	x29, sp
    200035ac:	a90153f3 	stp	x19, x20, [sp, #16]
    200035b0:	aa0003f3 	mov	x19, x0
    200035b4:	910183f4 	add	x20, sp, #0x60
    200035b8:	a9025bf5 	stp	x21, x22, [sp, #32]
    200035bc:	1a9f17f5 	cset	w21, eq	// eq = none
    200035c0:	910163f6 	add	x22, sp, #0x58
    200035c4:	a90363f7 	stp	x23, x24, [sp, #48]
    200035c8:	91008018 	add	x24, x0, #0x20
    200035cc:	aa0303f7 	mov	x23, x3
    200035d0:	a9046bf9 	stp	x25, x26, [sp, #64]
    200035d4:	aa0103f9 	mov	x25, x1
    200035d8:	d280001a 	mov	x26, #0x0                   	// #0
    200035dc:	f9002fe2 	str	x2, [sp, #88]
    200035e0:	97fffcfc 	bl	200029d0 <vPortEnterCritical>
    200035e4:	f9403a61 	ldr	x1, [x19, #112]
    200035e8:	710002bf 	cmp	w21, #0x0
    200035ec:	f9403e60 	ldr	x0, [x19, #120]
    200035f0:	fa400020 	ccmp	x1, x0, #0x0, eq	// eq = none
    200035f4:	540004c3 	b.cc	2000368c <xQueueGenericSend+0xec>  // b.lo, b.ul, b.last
    200035f8:	f9402fe0 	ldr	x0, [sp, #88]
    200035fc:	b40008c0 	cbz	x0, 20003714 <xQueueGenericSend+0x174>
    20003600:	b40007ba 	cbz	x26, 200036f4 <xQueueGenericSend+0x154>
    20003604:	97fffc8f 	bl	20002840 <vPortExitCritical>
    20003608:	940004ae 	bl	200048c0 <vTaskSuspendAll>
    2000360c:	97fffcf1 	bl	200029d0 <vPortEnterCritical>
    20003610:	39422260 	ldrb	w0, [x19, #136]
    20003614:	13001c00 	sxtb	w0, w0
    20003618:	3100041f 	cmn	w0, #0x1
    2000361c:	54000041 	b.ne	20003624 <xQueueGenericSend+0x84>  // b.any
    20003620:	3902227f 	strb	wzr, [x19, #136]
    20003624:	39422660 	ldrb	w0, [x19, #137]
    20003628:	13001c00 	sxtb	w0, w0
    2000362c:	3100041f 	cmn	w0, #0x1
    20003630:	54000041 	b.ne	20003638 <xQueueGenericSend+0x98>  // b.any
    20003634:	3902267f 	strb	wzr, [x19, #137]
    20003638:	97fffc82 	bl	20002840 <vPortExitCritical>
    2000363c:	aa1603e1 	mov	x1, x22
    20003640:	aa1403e0 	mov	x0, x20
    20003644:	94000683 	bl	20005050 <xTaskCheckForTimeOut>
    20003648:	b5000760 	cbnz	x0, 20003734 <xQueueGenericSend+0x194>
    2000364c:	97fffce1 	bl	200029d0 <vPortEnterCritical>
    20003650:	f9403a61 	ldr	x1, [x19, #112]
    20003654:	f9403e60 	ldr	x0, [x19, #120]
    20003658:	eb00003f 	cmp	x1, x0
    2000365c:	54000360 	b.eq	200036c8 <xQueueGenericSend+0x128>  // b.none
    20003660:	97fffc78 	bl	20002840 <vPortExitCritical>
    20003664:	aa1303e0 	mov	x0, x19
    20003668:	97ffff36 	bl	20003340 <prvUnlockQueue>
    2000366c:	94000539 	bl	20004b50 <xTaskResumeAll>
    20003670:	d280003a 	mov	x26, #0x1                   	// #1
    20003674:	97fffcd7 	bl	200029d0 <vPortEnterCritical>
    20003678:	f9403a61 	ldr	x1, [x19, #112]
    2000367c:	710002bf 	cmp	w21, #0x0
    20003680:	f9403e60 	ldr	x0, [x19, #120]
    20003684:	fa400020 	ccmp	x1, x0, #0x0, eq	// eq = none
    20003688:	54fffb82 	b.cs	200035f8 <xQueueGenericSend+0x58>  // b.hs, b.nlast
    2000368c:	aa1903e1 	mov	x1, x25
    20003690:	aa1703e2 	mov	x2, x23
    20003694:	aa1303e0 	mov	x0, x19
    20003698:	97fffeea 	bl	20003240 <prvCopyDataToQueue>
    2000369c:	f9402661 	ldr	x1, [x19, #72]
    200036a0:	b5000301 	cbnz	x1, 20003700 <xQueueGenericSend+0x160>
    200036a4:	b5000340 	cbnz	x0, 2000370c <xQueueGenericSend+0x16c>
    200036a8:	97fffc66 	bl	20002840 <vPortExitCritical>
    200036ac:	a94153f3 	ldp	x19, x20, [sp, #16]
    200036b0:	d2800020 	mov	x0, #0x1                   	// #1
    200036b4:	a9425bf5 	ldp	x21, x22, [sp, #32]
    200036b8:	a94363f7 	ldp	x23, x24, [sp, #48]
    200036bc:	a9446bf9 	ldp	x25, x26, [sp, #64]
    200036c0:	a8c77bfd 	ldp	x29, x30, [sp], #112
    200036c4:	d65f03c0 	ret
    200036c8:	97fffc5e 	bl	20002840 <vPortExitCritical>
    200036cc:	f9402fe1 	ldr	x1, [sp, #88]
    200036d0:	aa1803e0 	mov	x0, x24
    200036d4:	940005c3 	bl	20004de0 <vTaskPlaceOnEventList>
    200036d8:	aa1303e0 	mov	x0, x19
    200036dc:	97ffff19 	bl	20003340 <prvUnlockQueue>
    200036e0:	9400051c 	bl	20004b50 <xTaskResumeAll>
    200036e4:	b5fffc60 	cbnz	x0, 20003670 <xQueueGenericSend+0xd0>
    200036e8:	d4000001 	svc	#0x0
    200036ec:	d280003a 	mov	x26, #0x1                   	// #1
    200036f0:	17ffffe1 	b	20003674 <xQueueGenericSend+0xd4>
    200036f4:	aa1403e0 	mov	x0, x20
    200036f8:	9400064e 	bl	20005030 <vTaskInternalSetTimeOutState>
    200036fc:	17ffffc2 	b	20003604 <xQueueGenericSend+0x64>
    20003700:	91012260 	add	x0, x19, #0x48
    20003704:	940005e7 	bl	20004ea0 <xTaskRemoveFromEventList>
    20003708:	b4fffd00 	cbz	x0, 200036a8 <xQueueGenericSend+0x108>
    2000370c:	d4000001 	svc	#0x0
    20003710:	17ffffe6 	b	200036a8 <xQueueGenericSend+0x108>
    20003714:	97fffc4b 	bl	20002840 <vPortExitCritical>
    20003718:	d2800000 	mov	x0, #0x0                   	// #0
    2000371c:	a94153f3 	ldp	x19, x20, [sp, #16]
    20003720:	a9425bf5 	ldp	x21, x22, [sp, #32]
    20003724:	a94363f7 	ldp	x23, x24, [sp, #48]
    20003728:	a9446bf9 	ldp	x25, x26, [sp, #64]
    2000372c:	a8c77bfd 	ldp	x29, x30, [sp], #112
    20003730:	d65f03c0 	ret
    20003734:	aa1303e0 	mov	x0, x19
    20003738:	97ffff02 	bl	20003340 <prvUnlockQueue>
    2000373c:	94000505 	bl	20004b50 <xTaskResumeAll>
    20003740:	d2800000 	mov	x0, #0x0                   	// #0
    20003744:	17fffff6 	b	2000371c <xQueueGenericSend+0x17c>
    20003748:	d503201f 	nop
    2000374c:	d503201f 	nop

0000000020003750 <xQueueCreateMutex>:
    20003750:	a9be7bfd 	stp	x29, x30, [sp, #-32]!
    20003754:	2a0003e2 	mov	w2, w0
    20003758:	910003fd 	mov	x29, sp
    2000375c:	d2800001 	mov	x1, #0x0                   	// #0
    20003760:	d2800020 	mov	x0, #0x1                   	// #1
    20003764:	f9000bf3 	str	x19, [sp, #16]
    20003768:	97ffff5a 	bl	200034d0 <xQueueGenericCreate>
    2000376c:	aa0003f3 	mov	x19, x0
    20003770:	b40000e0 	cbz	x0, 2000378c <xQueueCreateMutex+0x3c>
    20003774:	d2800003 	mov	x3, #0x0                   	// #0
    20003778:	d2800002 	mov	x2, #0x0                   	// #0
    2000377c:	f900001f 	str	xzr, [x0]
    20003780:	d2800001 	mov	x1, #0x0                   	// #0
    20003784:	a9017c1f 	stp	xzr, xzr, [x0, #16]
    20003788:	97ffff86 	bl	200035a0 <xQueueGenericSend>
    2000378c:	aa1303e0 	mov	x0, x19
    20003790:	f9400bf3 	ldr	x19, [sp, #16]
    20003794:	a8c27bfd 	ldp	x29, x30, [sp], #32
    20003798:	d65f03c0 	ret
    2000379c:	d503201f 	nop

00000000200037a0 <xQueueGenericSendFromISR>:
    200037a0:	a9bc7bfd 	stp	x29, x30, [sp, #-64]!
    200037a4:	910003fd 	mov	x29, sp
    200037a8:	a90153f3 	stp	x19, x20, [sp, #16]
    200037ac:	aa0003f3 	mov	x19, x0
    200037b0:	aa0303f4 	mov	x20, x3
    200037b4:	a9025bf5 	stp	x21, x22, [sp, #32]
    200037b8:	aa0103f6 	mov	x22, x1
    200037bc:	a90363f7 	stp	x23, x24, [sp, #48]
    200037c0:	aa0203f8 	mov	x24, x2
    200037c4:	97fffc6f 	bl	20002980 <uxPortSetInterruptMask>
    200037c8:	f9403a61 	ldr	x1, [x19, #112]
    200037cc:	aa0003f5 	mov	x21, x0
    200037d0:	f9403e60 	ldr	x0, [x19, #120]
    200037d4:	eb00003f 	cmp	x1, x0
    200037d8:	fa422a84 	ccmp	x20, #0x2, #0x4, cs	// cs = hs, nlast
    200037dc:	540001e1 	b.ne	20003818 <xQueueGenericSendFromISR+0x78>  // b.any
    200037e0:	39422677 	ldrb	w23, [x19, #137]
    200037e4:	aa1403e2 	mov	x2, x20
    200037e8:	aa1603e1 	mov	x1, x22
    200037ec:	aa1303e0 	mov	x0, x19
    200037f0:	f9403a63 	ldr	x3, [x19, #112]
    200037f4:	13001ef4 	sxtb	w20, w23
    200037f8:	97fffe92 	bl	20003240 <prvCopyDataToQueue>
    200037fc:	3100069f 	cmn	w20, #0x1
    20003800:	540001e0 	b.eq	2000383c <xQueueGenericSendFromISR+0x9c>  // b.none
    20003804:	110006f7 	add	w23, w23, #0x1
    20003808:	13001ef7 	sxtb	w23, w23
    2000380c:	39022677 	strb	w23, [x19, #137]
    20003810:	d2800033 	mov	x19, #0x1                   	// #1
    20003814:	14000002 	b	2000381c <xQueueGenericSendFromISR+0x7c>
    20003818:	d2800013 	mov	x19, #0x0                   	// #0
    2000381c:	aa1503e0 	mov	x0, x21
    20003820:	97fffc48 	bl	20002940 <vPortClearInterruptMask>
    20003824:	a9425bf5 	ldp	x21, x22, [sp, #32]
    20003828:	aa1303e0 	mov	x0, x19
    2000382c:	a94153f3 	ldp	x19, x20, [sp, #16]
    20003830:	a94363f7 	ldp	x23, x24, [sp, #48]
    20003834:	a8c47bfd 	ldp	x29, x30, [sp], #64
    20003838:	d65f03c0 	ret
    2000383c:	f9402660 	ldr	x0, [x19, #72]
    20003840:	b4fffe80 	cbz	x0, 20003810 <xQueueGenericSendFromISR+0x70>
    20003844:	91012260 	add	x0, x19, #0x48
    20003848:	94000596 	bl	20004ea0 <xTaskRemoveFromEventList>
    2000384c:	f100031f 	cmp	x24, #0x0
    20003850:	fa401804 	ccmp	x0, #0x0, #0x4, ne	// ne = any
    20003854:	54fffde0 	b.eq	20003810 <xQueueGenericSendFromISR+0x70>  // b.none
    20003858:	d2800020 	mov	x0, #0x1                   	// #1
    2000385c:	d2800033 	mov	x19, #0x1                   	// #1
    20003860:	f9000300 	str	x0, [x24]
    20003864:	17ffffee 	b	2000381c <xQueueGenericSendFromISR+0x7c>
    20003868:	d503201f 	nop
    2000386c:	d503201f 	nop

0000000020003870 <xQueueGiveFromISR>:
    20003870:	a9bd7bfd 	stp	x29, x30, [sp, #-48]!
    20003874:	910003fd 	mov	x29, sp
    20003878:	a90153f3 	stp	x19, x20, [sp, #16]
    2000387c:	aa0003f3 	mov	x19, x0
    20003880:	f90013f5 	str	x21, [sp, #32]
    20003884:	aa0103f5 	mov	x21, x1
    20003888:	97fffc3e 	bl	20002980 <uxPortSetInterruptMask>
    2000388c:	f9403a62 	ldr	x2, [x19, #112]
    20003890:	aa0003f4 	mov	x20, x0
    20003894:	f9403e60 	ldr	x0, [x19, #120]
    20003898:	eb02001f 	cmp	x0, x2
    2000389c:	54000189 	b.ls	200038cc <xQueueGiveFromISR+0x5c>  // b.plast
    200038a0:	39422660 	ldrb	w0, [x19, #137]
    200038a4:	91000442 	add	x2, x2, #0x1
    200038a8:	f9003a62 	str	x2, [x19, #112]
    200038ac:	13001c01 	sxtb	w1, w0
    200038b0:	3100043f 	cmn	w1, #0x1
    200038b4:	540001c0 	b.eq	200038ec <xQueueGiveFromISR+0x7c>  // b.none
    200038b8:	11000400 	add	w0, w0, #0x1
    200038bc:	13001c00 	sxtb	w0, w0
    200038c0:	39022660 	strb	w0, [x19, #137]
    200038c4:	d2800033 	mov	x19, #0x1                   	// #1
    200038c8:	14000002 	b	200038d0 <xQueueGiveFromISR+0x60>
    200038cc:	d2800013 	mov	x19, #0x0                   	// #0
    200038d0:	aa1403e0 	mov	x0, x20
    200038d4:	97fffc1b 	bl	20002940 <vPortClearInterruptMask>
    200038d8:	f94013f5 	ldr	x21, [sp, #32]
    200038dc:	aa1303e0 	mov	x0, x19
    200038e0:	a94153f3 	ldp	x19, x20, [sp, #16]
    200038e4:	a8c37bfd 	ldp	x29, x30, [sp], #48
    200038e8:	d65f03c0 	ret
    200038ec:	f9402660 	ldr	x0, [x19, #72]
    200038f0:	b4fffea0 	cbz	x0, 200038c4 <xQueueGiveFromISR+0x54>
    200038f4:	91012260 	add	x0, x19, #0x48
    200038f8:	9400056a 	bl	20004ea0 <xTaskRemoveFromEventList>
    200038fc:	f10002bf 	cmp	x21, #0x0
    20003900:	fa401804 	ccmp	x0, #0x0, #0x4, ne	// ne = any
    20003904:	54fffe00 	b.eq	200038c4 <xQueueGiveFromISR+0x54>  // b.none
    20003908:	d2800020 	mov	x0, #0x1                   	// #1
    2000390c:	d2800033 	mov	x19, #0x1                   	// #1
    20003910:	f90002a0 	str	x0, [x21]
    20003914:	17ffffef 	b	200038d0 <xQueueGiveFromISR+0x60>
    20003918:	d503201f 	nop
    2000391c:	d503201f 	nop

0000000020003920 <xQueueReceive>:
    20003920:	a9ba7bfd 	stp	x29, x30, [sp, #-96]!
    20003924:	910003fd 	mov	x29, sp
    20003928:	a90153f3 	stp	x19, x20, [sp, #16]
    2000392c:	aa0003f3 	mov	x19, x0
    20003930:	f9001bf7 	str	x23, [sp, #48]
    20003934:	aa0103f7 	mov	x23, x1
    20003938:	f90027e2 	str	x2, [sp, #72]
    2000393c:	97fffc25 	bl	200029d0 <vPortEnterCritical>
    20003940:	f9403a74 	ldr	x20, [x19, #112]
    20003944:	b5000834 	cbnz	x20, 20003a48 <xQueueReceive+0x128>
    20003948:	f94027e0 	ldr	x0, [sp, #72]
    2000394c:	a9025bf5 	stp	x21, x22, [sp, #32]
    20003950:	b40004e0 	cbz	x0, 200039ec <xQueueReceive+0xcc>
    20003954:	910143f5 	add	x21, sp, #0x50
    20003958:	910123f6 	add	x22, sp, #0x48
    2000395c:	aa1503e0 	mov	x0, x21
    20003960:	940005b4 	bl	20005030 <vTaskInternalSetTimeOutState>
    20003964:	97fffbb7 	bl	20002840 <vPortExitCritical>
    20003968:	940003d6 	bl	200048c0 <vTaskSuspendAll>
    2000396c:	97fffc19 	bl	200029d0 <vPortEnterCritical>
    20003970:	39422262 	ldrb	w2, [x19, #136]
    20003974:	13001c42 	sxtb	w2, w2
    20003978:	3100045f 	cmn	w2, #0x1
    2000397c:	54000041 	b.ne	20003984 <xQueueReceive+0x64>  // b.any
    20003980:	3902227f 	strb	wzr, [x19, #136]
    20003984:	39422662 	ldrb	w2, [x19, #137]
    20003988:	13001c42 	sxtb	w2, w2
    2000398c:	3100045f 	cmn	w2, #0x1
    20003990:	54000041 	b.ne	20003998 <xQueueReceive+0x78>  // b.any
    20003994:	3902267f 	strb	wzr, [x19, #137]
    20003998:	97fffbaa 	bl	20002840 <vPortExitCritical>
    2000399c:	aa1603e1 	mov	x1, x22
    200039a0:	aa1503e0 	mov	x0, x21
    200039a4:	940005ab 	bl	20005050 <xTaskCheckForTimeOut>
    200039a8:	b5000300 	cbnz	x0, 20003a08 <xQueueReceive+0xe8>
    200039ac:	97fffc09 	bl	200029d0 <vPortEnterCritical>
    200039b0:	f9403a60 	ldr	x0, [x19, #112]
    200039b4:	b50003a0 	cbnz	x0, 20003a28 <xQueueReceive+0x108>
    200039b8:	97fffba2 	bl	20002840 <vPortExitCritical>
    200039bc:	f94027e1 	ldr	x1, [sp, #72]
    200039c0:	91012260 	add	x0, x19, #0x48
    200039c4:	94000507 	bl	20004de0 <vTaskPlaceOnEventList>
    200039c8:	aa1303e0 	mov	x0, x19
    200039cc:	97fffe5d 	bl	20003340 <prvUnlockQueue>
    200039d0:	94000460 	bl	20004b50 <xTaskResumeAll>
    200039d4:	b4000340 	cbz	x0, 20003a3c <xQueueReceive+0x11c>
    200039d8:	97fffbfe 	bl	200029d0 <vPortEnterCritical>
    200039dc:	f9403a74 	ldr	x20, [x19, #112]
    200039e0:	b5000334 	cbnz	x20, 20003a44 <xQueueReceive+0x124>
    200039e4:	f94027e0 	ldr	x0, [sp, #72]
    200039e8:	b5fffbe0 	cbnz	x0, 20003964 <xQueueReceive+0x44>
    200039ec:	97fffb95 	bl	20002840 <vPortExitCritical>
    200039f0:	a94153f3 	ldp	x19, x20, [sp, #16]
    200039f4:	d2800000 	mov	x0, #0x0                   	// #0
    200039f8:	a9425bf5 	ldp	x21, x22, [sp, #32]
    200039fc:	f9401bf7 	ldr	x23, [sp, #48]
    20003a00:	a8c67bfd 	ldp	x29, x30, [sp], #96
    20003a04:	d65f03c0 	ret
    20003a08:	aa1303e0 	mov	x0, x19
    20003a0c:	97fffe4d 	bl	20003340 <prvUnlockQueue>
    20003a10:	94000450 	bl	20004b50 <xTaskResumeAll>
    20003a14:	97fffbef 	bl	200029d0 <vPortEnterCritical>
    20003a18:	f9403a60 	ldr	x0, [x19, #112]
    20003a1c:	b4fffe80 	cbz	x0, 200039ec <xQueueReceive+0xcc>
    20003a20:	97fffb88 	bl	20002840 <vPortExitCritical>
    20003a24:	17ffffed 	b	200039d8 <xQueueReceive+0xb8>
    20003a28:	97fffb86 	bl	20002840 <vPortExitCritical>
    20003a2c:	aa1303e0 	mov	x0, x19
    20003a30:	97fffe44 	bl	20003340 <prvUnlockQueue>
    20003a34:	94000447 	bl	20004b50 <xTaskResumeAll>
    20003a38:	17ffffe8 	b	200039d8 <xQueueReceive+0xb8>
    20003a3c:	d4000001 	svc	#0x0
    20003a40:	17ffffe6 	b	200039d8 <xQueueReceive+0xb8>
    20003a44:	a9425bf5 	ldp	x21, x22, [sp, #32]
    20003a48:	f9404262 	ldr	x2, [x19, #128]
    20003a4c:	b4000102 	cbz	x2, 20003a6c <xQueueReceive+0x14c>
    20003a50:	a9410660 	ldp	x0, x1, [x19, #16]
    20003a54:	8b020021 	add	x1, x1, x2
    20003a58:	eb00003f 	cmp	x1, x0
    20003a5c:	f9000e61 	str	x1, [x19, #24]
    20003a60:	540001a2 	b.cs	20003a94 <xQueueReceive+0x174>  // b.hs, b.nlast
    20003a64:	aa1703e0 	mov	x0, x23
    20003a68:	97fffa56 	bl	200023c0 <memcpy>
    20003a6c:	d1000694 	sub	x20, x20, #0x1
    20003a70:	f9003a74 	str	x20, [x19, #112]
    20003a74:	f9401260 	ldr	x0, [x19, #32]
    20003a78:	b5000140 	cbnz	x0, 20003aa0 <xQueueReceive+0x180>
    20003a7c:	97fffb71 	bl	20002840 <vPortExitCritical>
    20003a80:	a94153f3 	ldp	x19, x20, [sp, #16]
    20003a84:	d2800020 	mov	x0, #0x1                   	// #1
    20003a88:	f9401bf7 	ldr	x23, [sp, #48]
    20003a8c:	a8c67bfd 	ldp	x29, x30, [sp], #96
    20003a90:	d65f03c0 	ret
    20003a94:	f9400261 	ldr	x1, [x19]
    20003a98:	f9000e61 	str	x1, [x19, #24]
    20003a9c:	17fffff2 	b	20003a64 <xQueueReceive+0x144>
    20003aa0:	91008260 	add	x0, x19, #0x20
    20003aa4:	940004ff 	bl	20004ea0 <xTaskRemoveFromEventList>
    20003aa8:	b4fffea0 	cbz	x0, 20003a7c <xQueueReceive+0x15c>
    20003aac:	d4000001 	svc	#0x0
    20003ab0:	17fffff3 	b	20003a7c <xQueueReceive+0x15c>
    20003ab4:	d503201f 	nop
    20003ab8:	d503201f 	nop
    20003abc:	d503201f 	nop

0000000020003ac0 <xQueueSemaphoreTake>:
    20003ac0:	a9ba7bfd 	stp	x29, x30, [sp, #-96]!
    20003ac4:	910003fd 	mov	x29, sp
    20003ac8:	a90153f3 	stp	x19, x20, [sp, #16]
    20003acc:	aa0003f3 	mov	x19, x0
    20003ad0:	d2800014 	mov	x20, #0x0                   	// #0
    20003ad4:	a9025bf5 	stp	x21, x22, [sp, #32]
    20003ad8:	910143f5 	add	x21, sp, #0x50
    20003adc:	910123f6 	add	x22, sp, #0x48
    20003ae0:	f9001bf7 	str	x23, [sp, #48]
    20003ae4:	d2800017 	mov	x23, #0x0                   	// #0
    20003ae8:	f90027e1 	str	x1, [sp, #72]
    20003aec:	97fffbb9 	bl	200029d0 <vPortEnterCritical>
    20003af0:	f9403a61 	ldr	x1, [x19, #112]
    20003af4:	b5000501 	cbnz	x1, 20003b94 <xQueueSemaphoreTake+0xd4>
    20003af8:	f94027e0 	ldr	x0, [sp, #72]
    20003afc:	b4000ac0 	cbz	x0, 20003c54 <xQueueSemaphoreTake+0x194>
    20003b00:	b4000814 	cbz	x20, 20003c00 <xQueueSemaphoreTake+0x140>
    20003b04:	97fffb4f 	bl	20002840 <vPortExitCritical>
    20003b08:	9400036e 	bl	200048c0 <vTaskSuspendAll>
    20003b0c:	97fffbb1 	bl	200029d0 <vPortEnterCritical>
    20003b10:	39422261 	ldrb	w1, [x19, #136]
    20003b14:	13001c21 	sxtb	w1, w1
    20003b18:	3100043f 	cmn	w1, #0x1
    20003b1c:	54000041 	b.ne	20003b24 <xQueueSemaphoreTake+0x64>  // b.any
    20003b20:	3902227f 	strb	wzr, [x19, #136]
    20003b24:	39422661 	ldrb	w1, [x19, #137]
    20003b28:	13001c21 	sxtb	w1, w1
    20003b2c:	3100043f 	cmn	w1, #0x1
    20003b30:	54000041 	b.ne	20003b38 <xQueueSemaphoreTake+0x78>  // b.any
    20003b34:	3902267f 	strb	wzr, [x19, #137]
    20003b38:	97fffb42 	bl	20002840 <vPortExitCritical>
    20003b3c:	aa1603e1 	mov	x1, x22
    20003b40:	aa1503e0 	mov	x0, x21
    20003b44:	94000543 	bl	20005050 <xTaskCheckForTimeOut>
    20003b48:	b5000400 	cbnz	x0, 20003bc8 <xQueueSemaphoreTake+0x108>
    20003b4c:	97fffba1 	bl	200029d0 <vPortEnterCritical>
    20003b50:	f9403a60 	ldr	x0, [x19, #112]
    20003b54:	b5000620 	cbnz	x0, 20003c18 <xQueueSemaphoreTake+0x158>
    20003b58:	97fffb3a 	bl	20002840 <vPortExitCritical>
    20003b5c:	f9400260 	ldr	x0, [x19]
    20003b60:	b40007e0 	cbz	x0, 20003c5c <xQueueSemaphoreTake+0x19c>
    20003b64:	f94027e1 	ldr	x1, [sp, #72]
    20003b68:	91012260 	add	x0, x19, #0x48
    20003b6c:	9400049d 	bl	20004de0 <vTaskPlaceOnEventList>
    20003b70:	aa1303e0 	mov	x0, x19
    20003b74:	97fffdf3 	bl	20003340 <prvUnlockQueue>
    20003b78:	940003f6 	bl	20004b50 <xTaskResumeAll>
    20003b7c:	b5000040 	cbnz	x0, 20003b84 <xQueueSemaphoreTake+0xc4>
    20003b80:	d4000001 	svc	#0x0
    20003b84:	d2800034 	mov	x20, #0x1                   	// #1
    20003b88:	97fffb92 	bl	200029d0 <vPortEnterCritical>
    20003b8c:	f9403a61 	ldr	x1, [x19, #112]
    20003b90:	b4fffb41 	cbz	x1, 20003af8 <xQueueSemaphoreTake+0x38>
    20003b94:	d1000421 	sub	x1, x1, #0x1
    20003b98:	f9400260 	ldr	x0, [x19]
    20003b9c:	f9003a61 	str	x1, [x19, #112]
    20003ba0:	b4000740 	cbz	x0, 20003c88 <xQueueSemaphoreTake+0x1c8>
    20003ba4:	f9401260 	ldr	x0, [x19, #32]
    20003ba8:	b5000660 	cbnz	x0, 20003c74 <xQueueSemaphoreTake+0x1b4>
    20003bac:	97fffb25 	bl	20002840 <vPortExitCritical>
    20003bb0:	a94153f3 	ldp	x19, x20, [sp, #16]
    20003bb4:	d2800020 	mov	x0, #0x1                   	// #1
    20003bb8:	a9425bf5 	ldp	x21, x22, [sp, #32]
    20003bbc:	f9401bf7 	ldr	x23, [sp, #48]
    20003bc0:	a8c67bfd 	ldp	x29, x30, [sp], #96
    20003bc4:	d65f03c0 	ret
    20003bc8:	aa1303e0 	mov	x0, x19
    20003bcc:	97fffddd 	bl	20003340 <prvUnlockQueue>
    20003bd0:	940003e0 	bl	20004b50 <xTaskResumeAll>
    20003bd4:	97fffb7f 	bl	200029d0 <vPortEnterCritical>
    20003bd8:	f9403a60 	ldr	x0, [x19, #112]
    20003bdc:	b5000180 	cbnz	x0, 20003c0c <xQueueSemaphoreTake+0x14c>
    20003be0:	97fffb18 	bl	20002840 <vPortExitCritical>
    20003be4:	b5000277 	cbnz	x23, 20003c30 <xQueueSemaphoreTake+0x170>
    20003be8:	a94153f3 	ldp	x19, x20, [sp, #16]
    20003bec:	d2800000 	mov	x0, #0x0                   	// #0
    20003bf0:	a9425bf5 	ldp	x21, x22, [sp, #32]
    20003bf4:	f9401bf7 	ldr	x23, [sp, #48]
    20003bf8:	a8c67bfd 	ldp	x29, x30, [sp], #96
    20003bfc:	d65f03c0 	ret
    20003c00:	aa1503e0 	mov	x0, x21
    20003c04:	9400050b 	bl	20005030 <vTaskInternalSetTimeOutState>
    20003c08:	17ffffbf 	b	20003b04 <xQueueSemaphoreTake+0x44>
    20003c0c:	d2800034 	mov	x20, #0x1                   	// #1
    20003c10:	97fffb0c 	bl	20002840 <vPortExitCritical>
    20003c14:	17ffffdd 	b	20003b88 <xQueueSemaphoreTake+0xc8>
    20003c18:	97fffb0a 	bl	20002840 <vPortExitCritical>
    20003c1c:	aa1303e0 	mov	x0, x19
    20003c20:	d2800034 	mov	x20, #0x1                   	// #1
    20003c24:	97fffdc7 	bl	20003340 <prvUnlockQueue>
    20003c28:	940003ca 	bl	20004b50 <xTaskResumeAll>
    20003c2c:	17ffffd7 	b	20003b88 <xQueueSemaphoreTake+0xc8>
    20003c30:	97fffb68 	bl	200029d0 <vPortEnterCritical>
    20003c34:	f9402661 	ldr	x1, [x19, #72]
    20003c38:	b40000a1 	cbz	x1, 20003c4c <xQueueSemaphoreTake+0x18c>
    20003c3c:	f9403260 	ldr	x0, [x19, #96]
    20003c40:	d2800101 	mov	x1, #0x8                   	// #8
    20003c44:	f9400000 	ldr	x0, [x0]
    20003c48:	cb000021 	sub	x1, x1, x0
    20003c4c:	f9400a60 	ldr	x0, [x19, #16]
    20003c50:	940005dc 	bl	200053c0 <vTaskPriorityDisinheritAfterTimeout>
    20003c54:	97fffafb 	bl	20002840 <vPortExitCritical>
    20003c58:	17ffffe4 	b	20003be8 <xQueueSemaphoreTake+0x128>
    20003c5c:	97fffb5d 	bl	200029d0 <vPortEnterCritical>
    20003c60:	f9400a60 	ldr	x0, [x19, #16]
    20003c64:	94000553 	bl	200051b0 <xTaskPriorityInherit>
    20003c68:	aa0003f7 	mov	x23, x0
    20003c6c:	97fffaf5 	bl	20002840 <vPortExitCritical>
    20003c70:	17ffffbd 	b	20003b64 <xQueueSemaphoreTake+0xa4>
    20003c74:	91008260 	add	x0, x19, #0x20
    20003c78:	9400048a 	bl	20004ea0 <xTaskRemoveFromEventList>
    20003c7c:	b4fff980 	cbz	x0, 20003bac <xQueueSemaphoreTake+0xec>
    20003c80:	d4000001 	svc	#0x0
    20003c84:	17ffffca 	b	20003bac <xQueueSemaphoreTake+0xec>
    20003c88:	9400061a 	bl	200054f0 <pvTaskIncrementMutexHeldCount>
    20003c8c:	f9000a60 	str	x0, [x19, #16]
    20003c90:	17ffffc5 	b	20003ba4 <xQueueSemaphoreTake+0xe4>
    20003c94:	d503201f 	nop
    20003c98:	d503201f 	nop
    20003c9c:	d503201f 	nop

0000000020003ca0 <xQueuePeek>:
    20003ca0:	a9bb7bfd 	stp	x29, x30, [sp, #-80]!
    20003ca4:	910003fd 	mov	x29, sp
    20003ca8:	a90153f3 	stp	x19, x20, [sp, #16]
    20003cac:	aa0003f3 	mov	x19, x0
    20003cb0:	a9025bf5 	stp	x21, x22, [sp, #32]
    20003cb4:	aa0103f6 	mov	x22, x1
    20003cb8:	f9001fe2 	str	x2, [sp, #56]
    20003cbc:	97fffb45 	bl	200029d0 <vPortEnterCritical>
    20003cc0:	f9403a60 	ldr	x0, [x19, #112]
    20003cc4:	b50007e0 	cbnz	x0, 20003dc0 <xQueuePeek+0x120>
    20003cc8:	f9401fe0 	ldr	x0, [sp, #56]
    20003ccc:	b4000500 	cbz	x0, 20003d6c <xQueuePeek+0xcc>
    20003cd0:	910103f4 	add	x20, sp, #0x40
    20003cd4:	9100e3f5 	add	x21, sp, #0x38
    20003cd8:	aa1403e0 	mov	x0, x20
    20003cdc:	940004d5 	bl	20005030 <vTaskInternalSetTimeOutState>
    20003ce0:	97fffad8 	bl	20002840 <vPortExitCritical>
    20003ce4:	940002f7 	bl	200048c0 <vTaskSuspendAll>
    20003ce8:	97fffb3a 	bl	200029d0 <vPortEnterCritical>
    20003cec:	39422262 	ldrb	w2, [x19, #136]
    20003cf0:	13001c42 	sxtb	w2, w2
    20003cf4:	3100045f 	cmn	w2, #0x1
    20003cf8:	54000041 	b.ne	20003d00 <xQueuePeek+0x60>  // b.any
    20003cfc:	3902227f 	strb	wzr, [x19, #136]
    20003d00:	39422662 	ldrb	w2, [x19, #137]
    20003d04:	13001c42 	sxtb	w2, w2
    20003d08:	3100045f 	cmn	w2, #0x1
    20003d0c:	54000041 	b.ne	20003d14 <xQueuePeek+0x74>  // b.any
    20003d10:	3902267f 	strb	wzr, [x19, #137]
    20003d14:	97fffacb 	bl	20002840 <vPortExitCritical>
    20003d18:	aa1503e1 	mov	x1, x21
    20003d1c:	aa1403e0 	mov	x0, x20
    20003d20:	940004cc 	bl	20005050 <xTaskCheckForTimeOut>
    20003d24:	b5000300 	cbnz	x0, 20003d84 <xQueuePeek+0xe4>
    20003d28:	97fffb2a 	bl	200029d0 <vPortEnterCritical>
    20003d2c:	f9403a60 	ldr	x0, [x19, #112]
    20003d30:	b50003a0 	cbnz	x0, 20003da4 <xQueuePeek+0x104>
    20003d34:	97fffac3 	bl	20002840 <vPortExitCritical>
    20003d38:	f9401fe1 	ldr	x1, [sp, #56]
    20003d3c:	91012260 	add	x0, x19, #0x48
    20003d40:	94000428 	bl	20004de0 <vTaskPlaceOnEventList>
    20003d44:	aa1303e0 	mov	x0, x19
    20003d48:	97fffd7e 	bl	20003340 <prvUnlockQueue>
    20003d4c:	94000381 	bl	20004b50 <xTaskResumeAll>
    20003d50:	b4000340 	cbz	x0, 20003db8 <xQueuePeek+0x118>
    20003d54:	d503201f 	nop
    20003d58:	97fffb1e 	bl	200029d0 <vPortEnterCritical>
    20003d5c:	f9403a62 	ldr	x2, [x19, #112]
    20003d60:	b5000302 	cbnz	x2, 20003dc0 <xQueuePeek+0x120>
    20003d64:	f9401fe0 	ldr	x0, [sp, #56]
    20003d68:	b5fffbc0 	cbnz	x0, 20003ce0 <xQueuePeek+0x40>
    20003d6c:	97fffab5 	bl	20002840 <vPortExitCritical>
    20003d70:	a94153f3 	ldp	x19, x20, [sp, #16]
    20003d74:	d2800000 	mov	x0, #0x0                   	// #0
    20003d78:	a9425bf5 	ldp	x21, x22, [sp, #32]
    20003d7c:	a8c57bfd 	ldp	x29, x30, [sp], #80
    20003d80:	d65f03c0 	ret
    20003d84:	aa1303e0 	mov	x0, x19
    20003d88:	97fffd6e 	bl	20003340 <prvUnlockQueue>
    20003d8c:	94000371 	bl	20004b50 <xTaskResumeAll>
    20003d90:	97fffb10 	bl	200029d0 <vPortEnterCritical>
    20003d94:	f9403a60 	ldr	x0, [x19, #112]
    20003d98:	b4fffea0 	cbz	x0, 20003d6c <xQueuePeek+0xcc>
    20003d9c:	97fffaa9 	bl	20002840 <vPortExitCritical>
    20003da0:	17ffffee 	b	20003d58 <xQueuePeek+0xb8>
    20003da4:	97fffaa7 	bl	20002840 <vPortExitCritical>
    20003da8:	aa1303e0 	mov	x0, x19
    20003dac:	97fffd65 	bl	20003340 <prvUnlockQueue>
    20003db0:	94000368 	bl	20004b50 <xTaskResumeAll>
    20003db4:	17ffffe9 	b	20003d58 <xQueuePeek+0xb8>
    20003db8:	d4000001 	svc	#0x0
    20003dbc:	17ffffe7 	b	20003d58 <xQueuePeek+0xb8>
    20003dc0:	f9404262 	ldr	x2, [x19, #128]
    20003dc4:	f9400e74 	ldr	x20, [x19, #24]
    20003dc8:	b4000102 	cbz	x2, 20003de8 <xQueuePeek+0x148>
    20003dcc:	8b020281 	add	x1, x20, x2
    20003dd0:	f9400a60 	ldr	x0, [x19, #16]
    20003dd4:	f9000e61 	str	x1, [x19, #24]
    20003dd8:	eb00003f 	cmp	x1, x0
    20003ddc:	54000182 	b.cs	20003e0c <xQueuePeek+0x16c>  // b.hs, b.nlast
    20003de0:	aa1603e0 	mov	x0, x22
    20003de4:	97fff977 	bl	200023c0 <memcpy>
    20003de8:	f9402660 	ldr	x0, [x19, #72]
    20003dec:	f9000e74 	str	x20, [x19, #24]
    20003df0:	b5000140 	cbnz	x0, 20003e18 <xQueuePeek+0x178>
    20003df4:	97fffa93 	bl	20002840 <vPortExitCritical>
    20003df8:	a94153f3 	ldp	x19, x20, [sp, #16]
    20003dfc:	d2800020 	mov	x0, #0x1                   	// #1
    20003e00:	a9425bf5 	ldp	x21, x22, [sp, #32]
    20003e04:	a8c57bfd 	ldp	x29, x30, [sp], #80
    20003e08:	d65f03c0 	ret
    20003e0c:	f9400261 	ldr	x1, [x19]
    20003e10:	f9000e61 	str	x1, [x19, #24]
    20003e14:	17fffff3 	b	20003de0 <xQueuePeek+0x140>
    20003e18:	91012260 	add	x0, x19, #0x48
    20003e1c:	94000421 	bl	20004ea0 <xTaskRemoveFromEventList>
    20003e20:	b4fffea0 	cbz	x0, 20003df4 <xQueuePeek+0x154>
    20003e24:	d4000001 	svc	#0x0
    20003e28:	17fffff3 	b	20003df4 <xQueuePeek+0x154>
    20003e2c:	d503201f 	nop

0000000020003e30 <xQueueReceiveFromISR>:
    20003e30:	a9bb7bfd 	stp	x29, x30, [sp, #-80]!
    20003e34:	910003fd 	mov	x29, sp
    20003e38:	a90153f3 	stp	x19, x20, [sp, #16]
    20003e3c:	aa0003f3 	mov	x19, x0
    20003e40:	a9025bf5 	stp	x21, x22, [sp, #32]
    20003e44:	aa0203f6 	mov	x22, x2
    20003e48:	a90363f7 	stp	x23, x24, [sp, #48]
    20003e4c:	aa0103f7 	mov	x23, x1
    20003e50:	97fffacc 	bl	20002980 <uxPortSetInterruptMask>
    20003e54:	f9403a75 	ldr	x21, [x19, #112]
    20003e58:	aa0003f4 	mov	x20, x0
    20003e5c:	b5000155 	cbnz	x21, 20003e84 <xQueueReceiveFromISR+0x54>
    20003e60:	d2800013 	mov	x19, #0x0                   	// #0
    20003e64:	aa1403e0 	mov	x0, x20
    20003e68:	97fffab6 	bl	20002940 <vPortClearInterruptMask>
    20003e6c:	a9425bf5 	ldp	x21, x22, [sp, #32]
    20003e70:	aa1303e0 	mov	x0, x19
    20003e74:	a94153f3 	ldp	x19, x20, [sp, #16]
    20003e78:	a94363f7 	ldp	x23, x24, [sp, #48]
    20003e7c:	a8c57bfd 	ldp	x29, x30, [sp], #80
    20003e80:	d65f03c0 	ret
    20003e84:	f9404262 	ldr	x2, [x19, #128]
    20003e88:	f90023f9 	str	x25, [sp, #64]
    20003e8c:	39422278 	ldrb	w24, [x19, #136]
    20003e90:	13001f19 	sxtb	w25, w24
    20003e94:	b4000142 	cbz	x2, 20003ebc <xQueueReceiveFromISR+0x8c>
    20003e98:	a9410660 	ldp	x0, x1, [x19, #16]
    20003e9c:	8b020021 	add	x1, x1, x2
    20003ea0:	eb00003f 	cmp	x1, x0
    20003ea4:	f9000e61 	str	x1, [x19, #24]
    20003ea8:	54000063 	b.cc	20003eb4 <xQueueReceiveFromISR+0x84>  // b.lo, b.ul, b.last
    20003eac:	f9400261 	ldr	x1, [x19]
    20003eb0:	f9000e61 	str	x1, [x19, #24]
    20003eb4:	aa1703e0 	mov	x0, x23
    20003eb8:	97fff942 	bl	200023c0 <memcpy>
    20003ebc:	d10006b5 	sub	x21, x21, #0x1
    20003ec0:	3100073f 	cmn	w25, #0x1
    20003ec4:	f9003a75 	str	x21, [x19, #112]
    20003ec8:	540000e0 	b.eq	20003ee4 <xQueueReceiveFromISR+0xb4>  // b.none
    20003ecc:	11000718 	add	w24, w24, #0x1
    20003ed0:	13001f18 	sxtb	w24, w24
    20003ed4:	39022278 	strb	w24, [x19, #136]
    20003ed8:	f94023f9 	ldr	x25, [sp, #64]
    20003edc:	d2800033 	mov	x19, #0x1                   	// #1
    20003ee0:	17ffffe1 	b	20003e64 <xQueueReceiveFromISR+0x34>
    20003ee4:	f9401260 	ldr	x0, [x19, #32]
    20003ee8:	b4ffff80 	cbz	x0, 20003ed8 <xQueueReceiveFromISR+0xa8>
    20003eec:	91008260 	add	x0, x19, #0x20
    20003ef0:	940003ec 	bl	20004ea0 <xTaskRemoveFromEventList>
    20003ef4:	f10002df 	cmp	x22, #0x0
    20003ef8:	fa401804 	ccmp	x0, #0x0, #0x4, ne	// ne = any
    20003efc:	54fffee0 	b.eq	20003ed8 <xQueueReceiveFromISR+0xa8>  // b.none
    20003f00:	d2800020 	mov	x0, #0x1                   	// #1
    20003f04:	f90002c0 	str	x0, [x22]
    20003f08:	17fffff4 	b	20003ed8 <xQueueReceiveFromISR+0xa8>
    20003f0c:	d503201f 	nop

0000000020003f10 <xQueuePeekFromISR>:
    20003f10:	a9bd7bfd 	stp	x29, x30, [sp, #-48]!
    20003f14:	910003fd 	mov	x29, sp
    20003f18:	a90153f3 	stp	x19, x20, [sp, #16]
    20003f1c:	aa0003f3 	mov	x19, x0
    20003f20:	a9025bf5 	stp	x21, x22, [sp, #32]
    20003f24:	aa0103f5 	mov	x21, x1
    20003f28:	97fffa96 	bl	20002980 <uxPortSetInterruptMask>
    20003f2c:	f9403a61 	ldr	x1, [x19, #112]
    20003f30:	aa0003f4 	mov	x20, x0
    20003f34:	b5000121 	cbnz	x1, 20003f58 <xQueuePeekFromISR+0x48>
    20003f38:	aa1403e0 	mov	x0, x20
    20003f3c:	d2800015 	mov	x21, #0x0                   	// #0
    20003f40:	97fffa80 	bl	20002940 <vPortClearInterruptMask>
    20003f44:	a94153f3 	ldp	x19, x20, [sp, #16]
    20003f48:	aa1503e0 	mov	x0, x21
    20003f4c:	a9425bf5 	ldp	x21, x22, [sp, #32]
    20003f50:	a8c37bfd 	ldp	x29, x30, [sp], #48
    20003f54:	d65f03c0 	ret
    20003f58:	f9404262 	ldr	x2, [x19, #128]
    20003f5c:	f9400e76 	ldr	x22, [x19, #24]
    20003f60:	b4000142 	cbz	x2, 20003f88 <xQueuePeekFromISR+0x78>
    20003f64:	8b0202c1 	add	x1, x22, x2
    20003f68:	f9400a60 	ldr	x0, [x19, #16]
    20003f6c:	f9000e61 	str	x1, [x19, #24]
    20003f70:	eb00003f 	cmp	x1, x0
    20003f74:	54000063 	b.cc	20003f80 <xQueuePeekFromISR+0x70>  // b.lo, b.ul, b.last
    20003f78:	f9400261 	ldr	x1, [x19]
    20003f7c:	f9000e61 	str	x1, [x19, #24]
    20003f80:	aa1503e0 	mov	x0, x21
    20003f84:	97fff90f 	bl	200023c0 <memcpy>
    20003f88:	aa1403e0 	mov	x0, x20
    20003f8c:	f9000e76 	str	x22, [x19, #24]
    20003f90:	d2800035 	mov	x21, #0x1                   	// #1
    20003f94:	97fffa6b 	bl	20002940 <vPortClearInterruptMask>
    20003f98:	a94153f3 	ldp	x19, x20, [sp, #16]
    20003f9c:	aa1503e0 	mov	x0, x21
    20003fa0:	a9425bf5 	ldp	x21, x22, [sp, #32]
    20003fa4:	a8c37bfd 	ldp	x29, x30, [sp], #48
    20003fa8:	d65f03c0 	ret
    20003fac:	d503201f 	nop

0000000020003fb0 <uxQueueMessagesWaiting>:
    20003fb0:	a9be7bfd 	stp	x29, x30, [sp, #-32]!
    20003fb4:	910003fd 	mov	x29, sp
    20003fb8:	f9000bf3 	str	x19, [sp, #16]
    20003fbc:	aa0003f3 	mov	x19, x0
    20003fc0:	97fffa84 	bl	200029d0 <vPortEnterCritical>
    20003fc4:	f9403a73 	ldr	x19, [x19, #112]
    20003fc8:	97fffa1e 	bl	20002840 <vPortExitCritical>
    20003fcc:	aa1303e0 	mov	x0, x19
    20003fd0:	f9400bf3 	ldr	x19, [sp, #16]
    20003fd4:	a8c27bfd 	ldp	x29, x30, [sp], #32
    20003fd8:	d65f03c0 	ret
    20003fdc:	d503201f 	nop

0000000020003fe0 <uxQueueSpacesAvailable>:
    20003fe0:	a9be7bfd 	stp	x29, x30, [sp, #-32]!
    20003fe4:	910003fd 	mov	x29, sp
    20003fe8:	f9000bf3 	str	x19, [sp, #16]
    20003fec:	aa0003f3 	mov	x19, x0
    20003ff0:	97fffa78 	bl	200029d0 <vPortEnterCritical>
    20003ff4:	f9403a60 	ldr	x0, [x19, #112]
    20003ff8:	f9403e73 	ldr	x19, [x19, #120]
    20003ffc:	cb000273 	sub	x19, x19, x0
    20004000:	97fffa10 	bl	20002840 <vPortExitCritical>
    20004004:	aa1303e0 	mov	x0, x19
    20004008:	f9400bf3 	ldr	x19, [sp, #16]
    2000400c:	a8c27bfd 	ldp	x29, x30, [sp], #32
    20004010:	d65f03c0 	ret
    20004014:	d503201f 	nop
    20004018:	d503201f 	nop
    2000401c:	d503201f 	nop

0000000020004020 <uxQueueMessagesWaitingFromISR>:
    20004020:	f9403800 	ldr	x0, [x0, #112]
    20004024:	d65f03c0 	ret
    20004028:	d503201f 	nop
    2000402c:	d503201f 	nop

0000000020004030 <vQueueDelete>:
    20004030:	140008a4 	b	200062c0 <vPortFree>
    20004034:	d503201f 	nop
    20004038:	d503201f 	nop
    2000403c:	d503201f 	nop

0000000020004040 <xQueueIsQueueEmptyFromISR>:
    20004040:	f9403800 	ldr	x0, [x0, #112]
    20004044:	f100001f 	cmp	x0, #0x0
    20004048:	9a9f17e0 	cset	x0, eq	// eq = none
    2000404c:	d65f03c0 	ret

0000000020004050 <xQueueIsQueueFullFromISR>:
    20004050:	f9403801 	ldr	x1, [x0, #112]
    20004054:	f9403c00 	ldr	x0, [x0, #120]
    20004058:	eb01001f 	cmp	x0, x1
    2000405c:	9a9f17e0 	cset	x0, eq	// eq = none
    20004060:	d65f03c0 	ret
    20004064:	d503201f 	nop
    20004068:	d503201f 	nop
    2000406c:	d503201f 	nop

0000000020004070 <vQueueWaitForMessageRestricted>:
    20004070:	a9bd7bfd 	stp	x29, x30, [sp, #-48]!
    20004074:	910003fd 	mov	x29, sp
    20004078:	a90153f3 	stp	x19, x20, [sp, #16]
    2000407c:	aa0003f3 	mov	x19, x0
    20004080:	aa0103f4 	mov	x20, x1
    20004084:	f90013f5 	str	x21, [sp, #32]
    20004088:	aa0203f5 	mov	x21, x2
    2000408c:	97fffa51 	bl	200029d0 <vPortEnterCritical>
    20004090:	39422260 	ldrb	w0, [x19, #136]
    20004094:	13001c00 	sxtb	w0, w0
    20004098:	3100041f 	cmn	w0, #0x1
    2000409c:	54000041 	b.ne	200040a4 <vQueueWaitForMessageRestricted+0x34>  // b.any
    200040a0:	3902227f 	strb	wzr, [x19, #136]
    200040a4:	39422660 	ldrb	w0, [x19, #137]
    200040a8:	13001c00 	sxtb	w0, w0
    200040ac:	3100041f 	cmn	w0, #0x1
    200040b0:	54000041 	b.ne	200040b8 <vQueueWaitForMessageRestricted+0x48>  // b.any
    200040b4:	3902267f 	strb	wzr, [x19, #137]
    200040b8:	97fff9e2 	bl	20002840 <vPortExitCritical>
    200040bc:	f9403a60 	ldr	x0, [x19, #112]
    200040c0:	b40000c0 	cbz	x0, 200040d8 <vQueueWaitForMessageRestricted+0x68>
    200040c4:	f94013f5 	ldr	x21, [sp, #32]
    200040c8:	aa1303e0 	mov	x0, x19
    200040cc:	a94153f3 	ldp	x19, x20, [sp, #16]
    200040d0:	a8c37bfd 	ldp	x29, x30, [sp], #48
    200040d4:	17fffc9b 	b	20003340 <prvUnlockQueue>
    200040d8:	aa1503e2 	mov	x2, x21
    200040dc:	aa1403e1 	mov	x1, x20
    200040e0:	91012260 	add	x0, x19, #0x48
    200040e4:	9400035f 	bl	20004e60 <vTaskPlaceOnEventListRestricted>
    200040e8:	f94013f5 	ldr	x21, [sp, #32]
    200040ec:	aa1303e0 	mov	x0, x19
    200040f0:	a94153f3 	ldp	x19, x20, [sp, #16]
    200040f4:	a8c37bfd 	ldp	x29, x30, [sp], #48
    200040f8:	17fffc92 	b	20003340 <prvUnlockQueue>
    200040fc:	00000000 	udf	#0

0000000020004100 <prvAddCurrentTaskToDelayedList.isra.0>:
    20004100:	a9bc7bfd 	stp	x29, x30, [sp, #-64]!
    20004104:	910003fd 	mov	x29, sp
    20004108:	a90153f3 	stp	x19, x20, [sp, #16]
    2000410c:	f0000013 	adrp	x19, 20007000 <pt_config>
    20004110:	90000034 	adrp	x20, 20008000 <timer_tick>
    20004114:	a90363f7 	stp	x23, x24, [sp, #48]
    20004118:	f9405a77 	ldr	x23, [x19, #176]
    2000411c:	a9025bf5 	stp	x21, x22, [sp, #32]
    20004120:	aa0003f6 	mov	x22, x0
    20004124:	f943a295 	ldr	x21, [x20, #1856]
    20004128:	f94002e0 	ldr	x0, [x23]
    2000412c:	91002000 	add	x0, x0, #0x8
    20004130:	97fffc30 	bl	200031f0 <uxListRemove>
    20004134:	b5000120 	cbnz	x0, 20004158 <prvAddCurrentTaskToDelayedList.isra.0+0x58>
    20004138:	f94002e2 	ldr	x2, [x23]
    2000413c:	911d0298 	add	x24, x20, #0x740
    20004140:	d2800020 	mov	x0, #0x1                   	// #1
    20004144:	f9400701 	ldr	x1, [x24, #8]
    20004148:	f9402c42 	ldr	x2, [x2, #88]
    2000414c:	9ac22000 	lsl	x0, x0, x2
    20004150:	8a200020 	bic	x0, x1, x0
    20004154:	f9000700 	str	x0, [x24, #8]
    20004158:	f9405a73 	ldr	x19, [x19, #176]
    2000415c:	ab1602b5 	adds	x21, x21, x22
    20004160:	911d0294 	add	x20, x20, #0x740
    20004164:	f9400260 	ldr	x0, [x19]
    20004168:	f9000415 	str	x21, [x0, #8]
    2000416c:	54000123 	b.cc	20004190 <prvAddCurrentTaskToDelayedList.isra.0+0x90>  // b.lo, b.ul, b.last
    20004170:	f9400a80 	ldr	x0, [x20, #16]
    20004174:	a9425bf5 	ldp	x21, x22, [sp, #32]
    20004178:	a94363f7 	ldp	x23, x24, [sp, #48]
    2000417c:	f9400261 	ldr	x1, [x19]
    20004180:	a94153f3 	ldp	x19, x20, [sp, #16]
    20004184:	a8c47bfd 	ldp	x29, x30, [sp], #64
    20004188:	91002021 	add	x1, x1, #0x8
    2000418c:	17fffc01 	b	20003190 <vListInsert>
    20004190:	f9400e80 	ldr	x0, [x20, #24]
    20004194:	f9400261 	ldr	x1, [x19]
    20004198:	91002021 	add	x1, x1, #0x8
    2000419c:	97fffbfd 	bl	20003190 <vListInsert>
    200041a0:	f9401280 	ldr	x0, [x20, #32]
    200041a4:	eb0002bf 	cmp	x21, x0
    200041a8:	54000042 	b.cs	200041b0 <prvAddCurrentTaskToDelayedList.isra.0+0xb0>  // b.hs, b.nlast
    200041ac:	f9001295 	str	x21, [x20, #32]
    200041b0:	a94153f3 	ldp	x19, x20, [sp, #16]
    200041b4:	a9425bf5 	ldp	x21, x22, [sp, #32]
    200041b8:	a94363f7 	ldp	x23, x24, [sp, #48]
    200041bc:	a8c47bfd 	ldp	x29, x30, [sp], #64
    200041c0:	d65f03c0 	ret
    200041c4:	d503201f 	nop
    200041c8:	d503201f 	nop
    200041cc:	d503201f 	nop

00000000200041d0 <prvIdleTask>:
    200041d0:	a9be7bfd 	stp	x29, x30, [sp, #-32]!
    200041d4:	910003fd 	mov	x29, sp
    200041d8:	a90153f3 	stp	x19, x20, [sp, #16]
    200041dc:	90000033 	adrp	x19, 20008000 <timer_tick>
    200041e0:	911d0273 	add	x19, x19, #0x740
    200041e4:	14000011 	b	20004228 <prvIdleTask+0x58>
    200041e8:	97fff9fa 	bl	200029d0 <vPortEnterCritical>
    200041ec:	f9402660 	ldr	x0, [x19, #72]
    200041f0:	f9400c14 	ldr	x20, [x0, #24]
    200041f4:	91002280 	add	x0, x20, #0x8
    200041f8:	97fffbfe 	bl	200031f0 <uxListRemove>
    200041fc:	f9402e60 	ldr	x0, [x19, #88]
    20004200:	d1000400 	sub	x0, x0, #0x1
    20004204:	f9002e60 	str	x0, [x19, #88]
    20004208:	f9401660 	ldr	x0, [x19, #40]
    2000420c:	d1000400 	sub	x0, x0, #0x1
    20004210:	f9001660 	str	x0, [x19, #40]
    20004214:	97fff98b 	bl	20002840 <vPortExitCritical>
    20004218:	f9403280 	ldr	x0, [x20, #96]
    2000421c:	94000829 	bl	200062c0 <vPortFree>
    20004220:	aa1403e0 	mov	x0, x20
    20004224:	94000827 	bl	200062c0 <vPortFree>
    20004228:	f9401660 	ldr	x0, [x19, #40]
    2000422c:	b5fffde0 	cbnz	x0, 200041e8 <prvIdleTask+0x18>
    20004230:	f9403260 	ldr	x0, [x19, #96]
    20004234:	f100041f 	cmp	x0, #0x1
    20004238:	54000049 	b.ls	20004240 <prvIdleTask+0x70>  // b.plast
    2000423c:	d4000001 	svc	#0x0
    20004240:	97fff640 	bl	20001b40 <vApplicationIdleHook>
    20004244:	17fffff9 	b	20004228 <prvIdleTask+0x58>
    20004248:	d503201f 	nop
    2000424c:	d503201f 	nop

0000000020004250 <xTaskCreate>:
    20004250:	a9bb7bfd 	stp	x29, x30, [sp, #-80]!
    20004254:	910003fd 	mov	x29, sp
    20004258:	a90363f7 	stp	x23, x24, [sp, #48]
    2000425c:	aa0003f8 	mov	x24, x0
    20004260:	d37d3c40 	ubfiz	x0, x2, #3, #16
    20004264:	aa0503f7 	mov	x23, x5
    20004268:	a90153f3 	stp	x19, x20, [sp, #16]
    2000426c:	aa0103f4 	mov	x20, x1
    20004270:	a9025bf5 	stp	x21, x22, [sp, #32]
    20004274:	aa0403f5 	mov	x21, x4
    20004278:	a9046bf9 	stp	x25, x26, [sp, #64]
    2000427c:	aa0303f9 	mov	x25, x3
    20004280:	12003c5a 	and	w26, w2, #0xffff
    20004284:	940007eb 	bl	20006230 <pvPortMalloc>
    20004288:	b4000c00 	cbz	x0, 20004408 <xTaskCreate+0x1b8>
    2000428c:	aa0003f6 	mov	x22, x0
    20004290:	d2801a00 	mov	x0, #0xd0                  	// #208
    20004294:	940007e7 	bl	20006230 <pvPortMalloc>
    20004298:	aa0003f3 	mov	x19, x0
    2000429c:	b4000b20 	cbz	x0, 20004400 <xTaskCreate+0x1b0>
    200042a0:	5100075a 	sub	w26, w26, #0x1
    200042a4:	f9003016 	str	x22, [x0, #96]
    200042a8:	8b1a0ed6 	add	x22, x22, x26, lsl #3
    200042ac:	927ceed6 	and	x22, x22, #0xfffffffffffffff0
    200042b0:	b4000c74 	cbz	x20, 2000443c <xTaskCreate+0x1ec>
    200042b4:	d2800006 	mov	x6, #0x0                   	// #0
    200042b8:	9101a000 	add	x0, x0, #0x68
    200042bc:	d503201f 	nop
    200042c0:	38666a87 	ldrb	w7, [x20, x6]
    200042c4:	38266807 	strb	w7, [x0, x6]
    200042c8:	910004c6 	add	x6, x6, #0x1
    200042cc:	f10040df 	cmp	x6, #0x10
    200042d0:	34000047 	cbz	w7, 200042d8 <xTaskCreate+0x88>
    200042d4:	54ffff61 	b.ne	200042c0 <xTaskCreate+0x70>  // b.any
    200042d8:	3901de7f 	strb	wzr, [x19, #119]
    200042dc:	9100227a 	add	x26, x19, #0x8
    200042e0:	f1001ebf 	cmp	x21, #0x7
    200042e4:	d28000e1 	mov	x1, #0x7                   	// #7
    200042e8:	aa1a03e0 	mov	x0, x26
    200042ec:	9a8192b5 	csel	x21, x21, x1, ls	// ls = plast
    200042f0:	f9002e75 	str	x21, [x19, #88]
    200042f4:	a907fe75 	stp	x21, xzr, [x19, #120]
    200042f8:	97fffb96 	bl	20003150 <vListInitialiseItem>
    200042fc:	9100c260 	add	x0, x19, #0x30
    20004300:	97fffb94 	bl	20003150 <vListInitialiseItem>
    20004304:	d2800103 	mov	x3, #0x8                   	// #8
    20004308:	4f000400 	movi	v0.4s, #0x0
    2000430c:	f9001273 	str	x19, [x19, #32]
    20004310:	cb150063 	sub	x3, x3, x21
    20004314:	f9002673 	str	x19, [x19, #72]
    20004318:	aa1903e2 	mov	x2, x25
    2000431c:	aa1803e1 	mov	x1, x24
    20004320:	aa1603e0 	mov	x0, x22
    20004324:	f9001a63 	str	x3, [x19, #48]
    20004328:	91022263 	add	x3, x19, #0x88
    2000432c:	ad000060 	stp	q0, q0, [x3]
    20004330:	ad010060 	stp	q0, q0, [x3, #32]
    20004334:	b900ca7f 	str	wzr, [x19, #200]
    20004338:	3903327f 	strb	wzr, [x19, #204]
    2000433c:	97fff8cd 	bl	20002670 <pxPortInitialiseStack>
    20004340:	f9000260 	str	x0, [x19]
    20004344:	b4000057 	cbz	x23, 2000434c <xTaskCreate+0xfc>
    20004348:	f90002f3 	str	x19, [x23]
    2000434c:	97fff9a1 	bl	200029d0 <vPortEnterCritical>
    20004350:	90000034 	adrp	x20, 20008000 <timer_tick>
    20004354:	911d0281 	add	x1, x20, #0x740
    20004358:	f9402c20 	ldr	x0, [x1, #88]
    2000435c:	f0000016 	adrp	x22, 20007000 <pt_config>
    20004360:	f9405ac2 	ldr	x2, [x22, #176]
    20004364:	91000400 	add	x0, x0, #0x1
    20004368:	f9002c20 	str	x0, [x1, #88]
    2000436c:	f9400040 	ldr	x0, [x2]
    20004370:	b40005a0 	cbz	x0, 20004424 <xTaskCreate+0x1d4>
    20004374:	f9410c20 	ldr	x0, [x1, #536]
    20004378:	f9402e61 	ldr	x1, [x19, #88]
    2000437c:	b50000e0 	cbnz	x0, 20004398 <xTaskCreate+0x148>
    20004380:	f9400040 	ldr	x0, [x2]
    20004384:	f9402c00 	ldr	x0, [x0, #88]
    20004388:	eb01001f 	cmp	x0, x1
    2000438c:	54000068 	b.hi	20004398 <xTaskCreate+0x148>  // b.pmore
    20004390:	f9000053 	str	x19, [x2]
    20004394:	d503201f 	nop
    20004398:	911d0294 	add	x20, x20, #0x740
    2000439c:	8b010823 	add	x3, x1, x1, lsl #2
    200043a0:	d2800022 	mov	x2, #0x1                   	// #1
    200043a4:	91018280 	add	x0, x20, #0x60
    200043a8:	f9400684 	ldr	x4, [x20, #8]
    200043ac:	9ac12042 	lsl	x2, x2, x1
    200043b0:	8b030c00 	add	x0, x0, x3, lsl #3
    200043b4:	aa1a03e1 	mov	x1, x26
    200043b8:	f9411283 	ldr	x3, [x20, #544]
    200043bc:	aa040042 	orr	x2, x2, x4
    200043c0:	91000463 	add	x3, x3, #0x1
    200043c4:	f9000682 	str	x2, [x20, #8]
    200043c8:	f9011283 	str	x3, [x20, #544]
    200043cc:	97fffb65 	bl	20003160 <vListInsertEnd>
    200043d0:	97fff91c 	bl	20002840 <vPortExitCritical>
    200043d4:	f9410e80 	ldr	x0, [x20, #536]
    200043d8:	b4000100 	cbz	x0, 200043f8 <xTaskCreate+0x1a8>
    200043dc:	f9405ad6 	ldr	x22, [x22, #176]
    200043e0:	f9402e60 	ldr	x0, [x19, #88]
    200043e4:	f94002c1 	ldr	x1, [x22]
    200043e8:	f9402c21 	ldr	x1, [x1, #88]
    200043ec:	eb00003f 	cmp	x1, x0
    200043f0:	54000042 	b.cs	200043f8 <xTaskCreate+0x1a8>  // b.hs, b.nlast
    200043f4:	d4000001 	svc	#0x0
    200043f8:	d2800020 	mov	x0, #0x1                   	// #1
    200043fc:	14000004 	b	2000440c <xTaskCreate+0x1bc>
    20004400:	aa1603e0 	mov	x0, x22
    20004404:	940007af 	bl	200062c0 <vPortFree>
    20004408:	92800000 	mov	x0, #0xffffffffffffffff    	// #-1
    2000440c:	a94153f3 	ldp	x19, x20, [sp, #16]
    20004410:	a9425bf5 	ldp	x21, x22, [sp, #32]
    20004414:	a94363f7 	ldp	x23, x24, [sp, #48]
    20004418:	a9446bf9 	ldp	x25, x26, [sp, #64]
    2000441c:	a8c57bfd 	ldp	x29, x30, [sp], #80
    20004420:	d65f03c0 	ret
    20004424:	f9000053 	str	x19, [x2]
    20004428:	f9402c20 	ldr	x0, [x1, #88]
    2000442c:	f100041f 	cmp	x0, #0x1
    20004430:	540000a0 	b.eq	20004444 <xTaskCreate+0x1f4>  // b.none
    20004434:	f9402e61 	ldr	x1, [x19, #88]
    20004438:	17ffffd8 	b	20004398 <xTaskCreate+0x148>
    2000443c:	3901a01f 	strb	wzr, [x0, #104]
    20004440:	17ffffa7 	b	200042dc <xTaskCreate+0x8c>
    20004444:	91018037 	add	x23, x1, #0x60
    20004448:	91068035 	add	x21, x1, #0x1a0
    2000444c:	d503201f 	nop
    20004450:	aa1703e0 	mov	x0, x23
    20004454:	9100a2f7 	add	x23, x23, #0x28
    20004458:	97fffb36 	bl	20003130 <vListInitialise>
    2000445c:	eb1702bf 	cmp	x21, x23
    20004460:	54ffff81 	b.ne	20004450 <xTaskCreate+0x200>  // b.any
    20004464:	911d0295 	add	x21, x20, #0x740
    20004468:	910682b8 	add	x24, x21, #0x1a0
    2000446c:	910722b7 	add	x23, x21, #0x1c8
    20004470:	aa1803e0 	mov	x0, x24
    20004474:	97fffb2f 	bl	20003130 <vListInitialise>
    20004478:	aa1703e0 	mov	x0, x23
    2000447c:	97fffb2d 	bl	20003130 <vListInitialise>
    20004480:	9107c2a0 	add	x0, x21, #0x1f0
    20004484:	97fffb2b 	bl	20003130 <vListInitialise>
    20004488:	9100c2a0 	add	x0, x21, #0x30
    2000448c:	97fffb29 	bl	20003130 <vListInitialise>
    20004490:	f9000eb8 	str	x24, [x21, #24]
    20004494:	f9402e61 	ldr	x1, [x19, #88]
    20004498:	f9000ab7 	str	x23, [x21, #16]
    2000449c:	17ffffbf 	b	20004398 <xTaskCreate+0x148>

00000000200044a0 <vTaskDelete>:
    200044a0:	a9bc7bfd 	stp	x29, x30, [sp, #-64]!
    200044a4:	910003fd 	mov	x29, sp
    200044a8:	a90153f3 	stp	x19, x20, [sp, #16]
    200044ac:	aa0003f3 	mov	x19, x0
    200044b0:	a9025bf5 	stp	x21, x22, [sp, #32]
    200044b4:	f0000016 	adrp	x22, 20007000 <pt_config>
    200044b8:	f9001bf7 	str	x23, [sp, #48]
    200044bc:	97fff945 	bl	200029d0 <vPortEnterCritical>
    200044c0:	b40008b3 	cbz	x19, 200045d4 <vTaskDelete+0x134>
    200044c4:	91002277 	add	x23, x19, #0x8
    200044c8:	90000035 	adrp	x21, 20008000 <timer_tick>
    200044cc:	aa1703e0 	mov	x0, x23
    200044d0:	97fffb48 	bl	200031f0 <uxListRemove>
    200044d4:	b5000100 	cbnz	x0, 200044f4 <vTaskDelete+0x54>
    200044d8:	f9402e61 	ldr	x1, [x19, #88]
    200044dc:	911d02a2 	add	x2, x21, #0x740
    200044e0:	91018043 	add	x3, x2, #0x60
    200044e4:	8b010820 	add	x0, x1, x1, lsl #2
    200044e8:	d37df000 	lsl	x0, x0, #3
    200044ec:	f8606860 	ldr	x0, [x3, x0]
    200044f0:	b4000580 	cbz	x0, 200045a0 <vTaskDelete+0x100>
    200044f4:	f9402a60 	ldr	x0, [x19, #80]
    200044f8:	b4000060 	cbz	x0, 20004504 <vTaskDelete+0x64>
    200044fc:	9100c260 	add	x0, x19, #0x30
    20004500:	97fffb3c 	bl	200031f0 <uxListRemove>
    20004504:	f9405ac1 	ldr	x1, [x22, #176]
    20004508:	911d02b4 	add	x20, x21, #0x740
    2000450c:	f9411280 	ldr	x0, [x20, #544]
    20004510:	f9400021 	ldr	x1, [x1]
    20004514:	91000400 	add	x0, x0, #0x1
    20004518:	f9011280 	str	x0, [x20, #544]
    2000451c:	eb13003f 	cmp	x1, x19
    20004520:	540004c0 	b.eq	200045b8 <vTaskDelete+0x118>  // b.none
    20004524:	f9402e81 	ldr	x1, [x20, #88]
    20004528:	f9403260 	ldr	x0, [x19, #96]
    2000452c:	d1000421 	sub	x1, x1, #0x1
    20004530:	f9002e81 	str	x1, [x20, #88]
    20004534:	94000763 	bl	200062c0 <vPortFree>
    20004538:	aa1303e0 	mov	x0, x19
    2000453c:	94000761 	bl	200062c0 <vPortFree>
    20004540:	f9400e80 	ldr	x0, [x20, #24]
    20004544:	f9400000 	ldr	x0, [x0]
    20004548:	b4000260 	cbz	x0, 20004594 <vTaskDelete+0xf4>
    2000454c:	f9400e80 	ldr	x0, [x20, #24]
    20004550:	f9400c00 	ldr	x0, [x0, #24]
    20004554:	f9400c00 	ldr	x0, [x0, #24]
    20004558:	f9400400 	ldr	x0, [x0, #8]
    2000455c:	f9001280 	str	x0, [x20, #32]
    20004560:	911d02b5 	add	x21, x21, #0x740
    20004564:	97fff8b7 	bl	20002840 <vPortExitCritical>
    20004568:	f9410ea0 	ldr	x0, [x21, #536]
    2000456c:	b40000a0 	cbz	x0, 20004580 <vTaskDelete+0xe0>
    20004570:	f9405ac1 	ldr	x1, [x22, #176]
    20004574:	f9400020 	ldr	x0, [x1]
    20004578:	eb13001f 	cmp	x0, x19
    2000457c:	54000320 	b.eq	200045e0 <vTaskDelete+0x140>  // b.none
    20004580:	a94153f3 	ldp	x19, x20, [sp, #16]
    20004584:	a9425bf5 	ldp	x21, x22, [sp, #32]
    20004588:	f9401bf7 	ldr	x23, [sp, #48]
    2000458c:	a8c47bfd 	ldp	x29, x30, [sp], #64
    20004590:	d65f03c0 	ret
    20004594:	92800000 	mov	x0, #0xffffffffffffffff    	// #-1
    20004598:	f9001280 	str	x0, [x20, #32]
    2000459c:	17fffff1 	b	20004560 <vTaskDelete+0xc0>
    200045a0:	f9400443 	ldr	x3, [x2, #8]
    200045a4:	d2800020 	mov	x0, #0x1                   	// #1
    200045a8:	9ac12000 	lsl	x0, x0, x1
    200045ac:	8a200060 	bic	x0, x3, x0
    200045b0:	f9000440 	str	x0, [x2, #8]
    200045b4:	17ffffd0 	b	200044f4 <vTaskDelete+0x54>
    200045b8:	9100c280 	add	x0, x20, #0x30
    200045bc:	aa1703e1 	mov	x1, x23
    200045c0:	97fffae8 	bl	20003160 <vListInsertEnd>
    200045c4:	f9401680 	ldr	x0, [x20, #40]
    200045c8:	91000400 	add	x0, x0, #0x1
    200045cc:	f9001680 	str	x0, [x20, #40]
    200045d0:	17ffffe4 	b	20004560 <vTaskDelete+0xc0>
    200045d4:	f9405ac1 	ldr	x1, [x22, #176]
    200045d8:	f9400033 	ldr	x19, [x1]
    200045dc:	17ffffba 	b	200044c4 <vTaskDelete+0x24>
    200045e0:	d4000001 	svc	#0x0
    200045e4:	a94153f3 	ldp	x19, x20, [sp, #16]
    200045e8:	a9425bf5 	ldp	x21, x22, [sp, #32]
    200045ec:	f9401bf7 	ldr	x23, [sp, #48]
    200045f0:	a8c47bfd 	ldp	x29, x30, [sp], #64
    200045f4:	d65f03c0 	ret
    200045f8:	d503201f 	nop
    200045fc:	d503201f 	nop

0000000020004600 <uxTaskPriorityGet>:
    20004600:	a9be7bfd 	stp	x29, x30, [sp, #-32]!
    20004604:	910003fd 	mov	x29, sp
    20004608:	f9000bf3 	str	x19, [sp, #16]
    2000460c:	aa0003f3 	mov	x19, x0
    20004610:	97fff8f0 	bl	200029d0 <vPortEnterCritical>
    20004614:	b40000f3 	cbz	x19, 20004630 <uxTaskPriorityGet+0x30>
    20004618:	f9402e73 	ldr	x19, [x19, #88]
    2000461c:	97fff889 	bl	20002840 <vPortExitCritical>
    20004620:	aa1303e0 	mov	x0, x19
    20004624:	f9400bf3 	ldr	x19, [sp, #16]
    20004628:	a8c27bfd 	ldp	x29, x30, [sp], #32
    2000462c:	d65f03c0 	ret
    20004630:	f0000000 	adrp	x0, 20007000 <pt_config>
    20004634:	f9405800 	ldr	x0, [x0, #176]
    20004638:	f9400013 	ldr	x19, [x0]
    2000463c:	f9402e73 	ldr	x19, [x19, #88]
    20004640:	97fff880 	bl	20002840 <vPortExitCritical>
    20004644:	aa1303e0 	mov	x0, x19
    20004648:	f9400bf3 	ldr	x19, [sp, #16]
    2000464c:	a8c27bfd 	ldp	x29, x30, [sp], #32
    20004650:	d65f03c0 	ret
    20004654:	d503201f 	nop
    20004658:	d503201f 	nop
    2000465c:	d503201f 	nop

0000000020004660 <uxTaskPriorityGetFromISR>:
    20004660:	a9be7bfd 	stp	x29, x30, [sp, #-32]!
    20004664:	910003fd 	mov	x29, sp
    20004668:	f9000bf3 	str	x19, [sp, #16]
    2000466c:	aa0003f3 	mov	x19, x0
    20004670:	97fff8c4 	bl	20002980 <uxPortSetInterruptMask>
    20004674:	b40000f3 	cbz	x19, 20004690 <uxTaskPriorityGetFromISR+0x30>
    20004678:	f9402e73 	ldr	x19, [x19, #88]
    2000467c:	97fff8b1 	bl	20002940 <vPortClearInterruptMask>
    20004680:	aa1303e0 	mov	x0, x19
    20004684:	f9400bf3 	ldr	x19, [sp, #16]
    20004688:	a8c27bfd 	ldp	x29, x30, [sp], #32
    2000468c:	d65f03c0 	ret
    20004690:	f0000001 	adrp	x1, 20007000 <pt_config>
    20004694:	f9405821 	ldr	x1, [x1, #176]
    20004698:	f9400033 	ldr	x19, [x1]
    2000469c:	f9402e73 	ldr	x19, [x19, #88]
    200046a0:	97fff8a8 	bl	20002940 <vPortClearInterruptMask>
    200046a4:	aa1303e0 	mov	x0, x19
    200046a8:	f9400bf3 	ldr	x19, [sp, #16]
    200046ac:	a8c27bfd 	ldp	x29, x30, [sp], #32
    200046b0:	d65f03c0 	ret
    200046b4:	d503201f 	nop
    200046b8:	d503201f 	nop
    200046bc:	d503201f 	nop

00000000200046c0 <vTaskPrioritySet>:
    200046c0:	a9bc7bfd 	stp	x29, x30, [sp, #-64]!
    200046c4:	910003fd 	mov	x29, sp
    200046c8:	f1001c3f 	cmp	x1, #0x7
    200046cc:	a90153f3 	stp	x19, x20, [sp, #16]
    200046d0:	aa0003f3 	mov	x19, x0
    200046d4:	d28000e0 	mov	x0, #0x7                   	// #7
    200046d8:	9a809034 	csel	x20, x1, x0, ls	// ls = plast
    200046dc:	97fff8bd 	bl	200029d0 <vPortEnterCritical>
    200046e0:	b4000693 	cbz	x19, 200047b0 <vTaskPrioritySet+0xf0>
    200046e4:	f9403e61 	ldr	x1, [x19, #120]
    200046e8:	eb01029f 	cmp	x20, x1
    200046ec:	540003e0 	b.eq	20004768 <vTaskPrioritySet+0xa8>  // b.none
    200046f0:	a9025bf5 	stp	x21, x22, [sp, #32]
    200046f4:	f0000000 	adrp	x0, 20007000 <pt_config>
    200046f8:	a90363f7 	stp	x23, x24, [sp, #48]
    200046fc:	540003c8 	b.hi	20004774 <vTaskPrioritySet+0xb4>  // b.pmore
    20004700:	f9405800 	ldr	x0, [x0, #176]
    20004704:	f9400000 	ldr	x0, [x0]
    20004708:	eb13001f 	cmp	x0, x19
    2000470c:	9a9f17f6 	cset	x22, eq	// eq = none
    20004710:	f9402e75 	ldr	x21, [x19, #88]
    20004714:	eb15003f 	cmp	x1, x21
    20004718:	54000041 	b.ne	20004720 <vTaskPrioritySet+0x60>  // b.any
    2000471c:	f9002e74 	str	x20, [x19, #88]
    20004720:	f9401a60 	ldr	x0, [x19, #48]
    20004724:	f9003e74 	str	x20, [x19, #120]
    20004728:	37f80080 	tbnz	w0, #31, 20004738 <vTaskPrioritySet+0x78>
    2000472c:	d2800100 	mov	x0, #0x8                   	// #8
    20004730:	cb140000 	sub	x0, x0, x20
    20004734:	f9001a60 	str	x0, [x19, #48]
    20004738:	f9401661 	ldr	x1, [x19, #40]
    2000473c:	8b150aa0 	add	x0, x21, x21, lsl #2
    20004740:	90000034 	adrp	x20, 20008000 <timer_tick>
    20004744:	911d0297 	add	x23, x20, #0x740
    20004748:	910182e2 	add	x2, x23, #0x60
    2000474c:	8b000c40 	add	x0, x2, x0, lsl #3
    20004750:	eb00003f 	cmp	x1, x0
    20004754:	54000360 	b.eq	200047c0 <vTaskPrioritySet+0x100>  // b.none
    20004758:	b4000236 	cbz	x22, 2000479c <vTaskPrioritySet+0xdc>
    2000475c:	d4000001 	svc	#0x0
    20004760:	a9425bf5 	ldp	x21, x22, [sp, #32]
    20004764:	a94363f7 	ldp	x23, x24, [sp, #48]
    20004768:	a94153f3 	ldp	x19, x20, [sp, #16]
    2000476c:	a8c47bfd 	ldp	x29, x30, [sp], #64
    20004770:	17fff834 	b	20002840 <vPortExitCritical>
    20004774:	f9405800 	ldr	x0, [x0, #176]
    20004778:	d2800016 	mov	x22, #0x0                   	// #0
    2000477c:	f9400002 	ldr	x2, [x0]
    20004780:	eb13005f 	cmp	x2, x19
    20004784:	54fffc60 	b.eq	20004710 <vTaskPrioritySet+0x50>  // b.none
    20004788:	f9400000 	ldr	x0, [x0]
    2000478c:	f9402c00 	ldr	x0, [x0, #88]
    20004790:	eb14001f 	cmp	x0, x20
    20004794:	9a9f87f6 	cset	x22, ls	// ls = plast
    20004798:	17ffffde 	b	20004710 <vTaskPrioritySet+0x50>
    2000479c:	a94153f3 	ldp	x19, x20, [sp, #16]
    200047a0:	a9425bf5 	ldp	x21, x22, [sp, #32]
    200047a4:	a94363f7 	ldp	x23, x24, [sp, #48]
    200047a8:	a8c47bfd 	ldp	x29, x30, [sp], #64
    200047ac:	17fff825 	b	20002840 <vPortExitCritical>
    200047b0:	f0000000 	adrp	x0, 20007000 <pt_config>
    200047b4:	f9405800 	ldr	x0, [x0, #176]
    200047b8:	f9400013 	ldr	x19, [x0]
    200047bc:	17ffffca 	b	200046e4 <vTaskPrioritySet+0x24>
    200047c0:	91002278 	add	x24, x19, #0x8
    200047c4:	aa1803e0 	mov	x0, x24
    200047c8:	97fffa8a 	bl	200031f0 <uxListRemove>
    200047cc:	b50000c0 	cbnz	x0, 200047e4 <vTaskPrioritySet+0x124>
    200047d0:	f94006e1 	ldr	x1, [x23, #8]
    200047d4:	d2800020 	mov	x0, #0x1                   	// #1
    200047d8:	9ad52000 	lsl	x0, x0, x21
    200047dc:	8a200020 	bic	x0, x1, x0
    200047e0:	f90006e0 	str	x0, [x23, #8]
    200047e4:	f9402e63 	ldr	x3, [x19, #88]
    200047e8:	911d0294 	add	x20, x20, #0x740
    200047ec:	d2800022 	mov	x2, #0x1                   	// #1
    200047f0:	91018280 	add	x0, x20, #0x60
    200047f4:	aa1803e1 	mov	x1, x24
    200047f8:	f9400684 	ldr	x4, [x20, #8]
    200047fc:	9ac32042 	lsl	x2, x2, x3
    20004800:	8b030863 	add	x3, x3, x3, lsl #2
    20004804:	aa040042 	orr	x2, x2, x4
    20004808:	8b030c00 	add	x0, x0, x3, lsl #3
    2000480c:	f9000682 	str	x2, [x20, #8]
    20004810:	97fffa54 	bl	20003160 <vListInsertEnd>
    20004814:	17ffffd1 	b	20004758 <vTaskPrioritySet+0x98>
    20004818:	d503201f 	nop
    2000481c:	d503201f 	nop

0000000020004820 <vTaskStartScheduler>:
    20004820:	a9be7bfd 	stp	x29, x30, [sp, #-32]!
    20004824:	910003fd 	mov	x29, sp
    20004828:	d0000001 	adrp	x1, 20006000 <prvTimerTask+0x200>
    2000482c:	90000000 	adrp	x0, 20004000 <uxQueueSpacesAvailable+0x20>
    20004830:	91118021 	add	x1, x1, #0x460
    20004834:	91074000 	add	x0, x0, #0x1d0
    20004838:	a90153f3 	stp	x19, x20, [sp, #16]
    2000483c:	90000034 	adrp	x20, 20008000 <timer_tick>
    20004840:	911d0293 	add	x19, x20, #0x740
    20004844:	9108a265 	add	x5, x19, #0x228
    20004848:	d2800004 	mov	x4, #0x0                   	// #0
    2000484c:	d2800003 	mov	x3, #0x0                   	// #0
    20004850:	52801902 	mov	w2, #0xc8                  	// #200
    20004854:	97fffe7f 	bl	20004250 <xTaskCreate>
    20004858:	f100041f 	cmp	x0, #0x1
    2000485c:	54000080 	b.eq	2000486c <vTaskStartScheduler+0x4c>  // b.none
    20004860:	a94153f3 	ldp	x19, x20, [sp, #16]
    20004864:	a8c27bfd 	ldp	x29, x30, [sp], #32
    20004868:	d65f03c0 	ret
    2000486c:	940004d9 	bl	20005bd0 <xTimerCreateTimerTask>
    20004870:	f100041f 	cmp	x0, #0x1
    20004874:	54ffff61 	b.ne	20004860 <vTaskStartScheduler+0x40>  // b.any
    20004878:	d50342df 	msr	daifset, #0x2
    2000487c:	d5033f9f 	dsb	sy
    20004880:	d5033fdf 	isb
    20004884:	92800001 	mov	x1, #0xffffffffffffffff    	// #-1
    20004888:	f9001261 	str	x1, [x19, #32]
    2000488c:	f9010e60 	str	x0, [x19, #536]
    20004890:	f903a29f 	str	xzr, [x20, #1856]
    20004894:	a94153f3 	ldp	x19, x20, [sp, #16]
    20004898:	a8c27bfd 	ldp	x29, x30, [sp], #32
    2000489c:	17fff7d1 	b	200027e0 <xPortStartScheduler>

00000000200048a0 <vTaskEndScheduler>:
    200048a0:	d50342df 	msr	daifset, #0x2
    200048a4:	d5033f9f 	dsb	sy
    200048a8:	d5033fdf 	isb
    200048ac:	90000020 	adrp	x0, 20008000 <timer_tick>
    200048b0:	911d0000 	add	x0, x0, #0x740
    200048b4:	f9010c1f 	str	xzr, [x0, #536]
    200048b8:	17fff7de 	b	20002830 <vPortEndScheduler>
    200048bc:	d503201f 	nop

00000000200048c0 <vTaskSuspendAll>:
    200048c0:	90000020 	adrp	x0, 20008000 <timer_tick>
    200048c4:	911d0000 	add	x0, x0, #0x740
    200048c8:	f9411801 	ldr	x1, [x0, #560]
    200048cc:	91000421 	add	x1, x1, #0x1
    200048d0:	f9011801 	str	x1, [x0, #560]
    200048d4:	d65f03c0 	ret
    200048d8:	d503201f 	nop
    200048dc:	d503201f 	nop

00000000200048e0 <xTaskGetTickCount>:
    200048e0:	90000020 	adrp	x0, 20008000 <timer_tick>
    200048e4:	f943a000 	ldr	x0, [x0, #1856]
    200048e8:	d65f03c0 	ret
    200048ec:	d503201f 	nop

00000000200048f0 <xTaskGetTickCountFromISR>:
    200048f0:	90000020 	adrp	x0, 20008000 <timer_tick>
    200048f4:	f943a000 	ldr	x0, [x0, #1856]
    200048f8:	d65f03c0 	ret
    200048fc:	d503201f 	nop

0000000020004900 <uxTaskGetNumberOfTasks>:
    20004900:	90000020 	adrp	x0, 20008000 <timer_tick>
    20004904:	911d0000 	add	x0, x0, #0x740
    20004908:	f9402c00 	ldr	x0, [x0, #88]
    2000490c:	d65f03c0 	ret

0000000020004910 <pcTaskGetName>:
    20004910:	b4000060 	cbz	x0, 2000491c <pcTaskGetName+0xc>
    20004914:	9101a000 	add	x0, x0, #0x68
    20004918:	d65f03c0 	ret
    2000491c:	f0000000 	adrp	x0, 20007000 <pt_config>
    20004920:	f9405800 	ldr	x0, [x0, #176]
    20004924:	f9400000 	ldr	x0, [x0]
    20004928:	9101a000 	add	x0, x0, #0x68
    2000492c:	d65f03c0 	ret

0000000020004930 <xTaskIncrementTick>:
    20004930:	a9ba7bfd 	stp	x29, x30, [sp, #-96]!
    20004934:	910003fd 	mov	x29, sp
    20004938:	a90363f7 	stp	x23, x24, [sp, #48]
    2000493c:	90000037 	adrp	x23, 20008000 <timer_tick>
    20004940:	911d02e0 	add	x0, x23, #0x740
    20004944:	f9411801 	ldr	x1, [x0, #560]
    20004948:	a9025bf5 	stp	x21, x22, [sp, #32]
    2000494c:	b5000c01 	cbnz	x1, 20004acc <xTaskIncrementTick+0x19c>
    20004950:	f943a2f6 	ldr	x22, [x23, #1856]
    20004954:	a90153f3 	stp	x19, x20, [sp, #16]
    20004958:	a90573fb 	stp	x27, x28, [sp, #80]
    2000495c:	910006d6 	add	x22, x22, #0x1
    20004960:	f903a2f6 	str	x22, [x23, #1856]
    20004964:	b4000936 	cbz	x22, 20004a88 <xTaskIncrementTick+0x158>
    20004968:	911d02f4 	add	x20, x23, #0x740
    2000496c:	f9401280 	ldr	x0, [x20, #32]
    20004970:	eb0002df 	cmp	x22, x0
    20004974:	54000583 	b.cc	20004a24 <xTaskIncrementTick+0xf4>  // b.lo, b.ul, b.last
    20004978:	f9400e80 	ldr	x0, [x20, #24]
    2000497c:	f9400000 	ldr	x0, [x0]
    20004980:	b4000dc0 	cbz	x0, 20004b38 <xTaskIncrementTick+0x208>
    20004984:	f000001b 	adrp	x27, 20007000 <pt_config>
    20004988:	d2800015 	mov	x21, #0x0                   	// #0
    2000498c:	a9046bf9 	stp	x25, x26, [sp, #64]
    20004990:	d2800038 	mov	x24, #0x1                   	// #1
    20004994:	91018299 	add	x25, x20, #0x60
    20004998:	f9405b7a 	ldr	x26, [x27, #176]
    2000499c:	14000017 	b	200049f8 <xTaskIncrementTick+0xc8>
    200049a0:	97fffa14 	bl	200031f0 <uxListRemove>
    200049a4:	f9402a61 	ldr	x1, [x19, #80]
    200049a8:	9100c260 	add	x0, x19, #0x30
    200049ac:	b4000041 	cbz	x1, 200049b4 <xTaskIncrementTick+0x84>
    200049b0:	97fffa10 	bl	200031f0 <uxListRemove>
    200049b4:	f9402e60 	ldr	x0, [x19, #88]
    200049b8:	aa1c03e1 	mov	x1, x28
    200049bc:	f9400683 	ldr	x3, [x20, #8]
    200049c0:	9ac02302 	lsl	x2, x24, x0
    200049c4:	8b000800 	add	x0, x0, x0, lsl #2
    200049c8:	aa030042 	orr	x2, x2, x3
    200049cc:	8b000f20 	add	x0, x25, x0, lsl #3
    200049d0:	f9000682 	str	x2, [x20, #8]
    200049d4:	97fff9e3 	bl	20003160 <vListInsertEnd>
    200049d8:	f9400341 	ldr	x1, [x26]
    200049dc:	f9400e80 	ldr	x0, [x20, #24]
    200049e0:	f9402e62 	ldr	x2, [x19, #88]
    200049e4:	f9402c21 	ldr	x1, [x1, #88]
    200049e8:	f9400000 	ldr	x0, [x0]
    200049ec:	eb01005f 	cmp	x2, x1
    200049f0:	9a9832b5 	csel	x21, x21, x24, cc	// cc = lo, ul, last
    200049f4:	b4000980 	cbz	x0, 20004b24 <xTaskIncrementTick+0x1f4>
    200049f8:	f9400e80 	ldr	x0, [x20, #24]
    200049fc:	f9400c00 	ldr	x0, [x0, #24]
    20004a00:	f9400c13 	ldr	x19, [x0, #24]
    20004a04:	f9400661 	ldr	x1, [x19, #8]
    20004a08:	9100227c 	add	x28, x19, #0x8
    20004a0c:	aa1c03e0 	mov	x0, x28
    20004a10:	eb0102df 	cmp	x22, x1
    20004a14:	54fffc62 	b.cs	200049a0 <xTaskIncrementTick+0x70>  // b.hs, b.nlast
    20004a18:	a9446bf9 	ldp	x25, x26, [sp, #64]
    20004a1c:	f9001281 	str	x1, [x20, #32]
    20004a20:	14000003 	b	20004a2c <xTaskIncrementTick+0xfc>
    20004a24:	d2800015 	mov	x21, #0x0                   	// #0
    20004a28:	f000001b 	adrp	x27, 20007000 <pt_config>
    20004a2c:	f9405b63 	ldr	x3, [x27, #176]
    20004a30:	911d02e1 	add	x1, x23, #0x740
    20004a34:	91018022 	add	x2, x1, #0x60
    20004a38:	f9400060 	ldr	x0, [x3]
    20004a3c:	f9402c00 	ldr	x0, [x0, #88]
    20004a40:	8b000800 	add	x0, x0, x0, lsl #2
    20004a44:	d37df000 	lsl	x0, x0, #3
    20004a48:	f8606842 	ldr	x2, [x2, x0]
    20004a4c:	f9412020 	ldr	x0, [x1, #576]
    20004a50:	f100085f 	cmp	x2, #0x2
    20004a54:	9a9f36b5 	csinc	x21, x21, xzr, cc	// cc = lo, ul, last
    20004a58:	b40004e0 	cbz	x0, 20004af4 <xTaskIncrementTick+0x1c4>
    20004a5c:	911d02f7 	add	x23, x23, #0x740
    20004a60:	a94153f3 	ldp	x19, x20, [sp, #16]
    20004a64:	a94573fb 	ldp	x27, x28, [sp, #80]
    20004a68:	f94126e0 	ldr	x0, [x23, #584]
    20004a6c:	a94363f7 	ldp	x23, x24, [sp, #48]
    20004a70:	f100001f 	cmp	x0, #0x0
    20004a74:	9a9f06b5 	csinc	x21, x21, xzr, eq	// eq = none
    20004a78:	aa1503e0 	mov	x0, x21
    20004a7c:	a9425bf5 	ldp	x21, x22, [sp, #32]
    20004a80:	a8c67bfd 	ldp	x29, x30, [sp], #96
    20004a84:	d65f03c0 	ret
    20004a88:	f9400c01 	ldr	x1, [x0, #24]
    20004a8c:	f9400802 	ldr	x2, [x0, #16]
    20004a90:	f9000c02 	str	x2, [x0, #24]
    20004a94:	f9000801 	str	x1, [x0, #16]
    20004a98:	f9411c01 	ldr	x1, [x0, #568]
    20004a9c:	91000421 	add	x1, x1, #0x1
    20004aa0:	f9011c01 	str	x1, [x0, #568]
    20004aa4:	f9400c01 	ldr	x1, [x0, #24]
    20004aa8:	f9400021 	ldr	x1, [x1]
    20004aac:	b5000281 	cbnz	x1, 20004afc <xTaskIncrementTick+0x1cc>
    20004ab0:	92800001 	mov	x1, #0xffffffffffffffff    	// #-1
    20004ab4:	911d02f4 	add	x20, x23, #0x740
    20004ab8:	f9001001 	str	x1, [x0, #32]
    20004abc:	f9401280 	ldr	x0, [x20, #32]
    20004ac0:	eb0002df 	cmp	x22, x0
    20004ac4:	54fffb03 	b.cc	20004a24 <xTaskIncrementTick+0xf4>  // b.lo, b.ul, b.last
    20004ac8:	17ffffac 	b	20004978 <xTaskIncrementTick+0x48>
    20004acc:	f9412001 	ldr	x1, [x0, #576]
    20004ad0:	d2800015 	mov	x21, #0x0                   	// #0
    20004ad4:	91000421 	add	x1, x1, #0x1
    20004ad8:	f9012001 	str	x1, [x0, #576]
    20004adc:	97fff41d 	bl	20001b50 <vApplicationTickHook>
    20004ae0:	a94363f7 	ldp	x23, x24, [sp, #48]
    20004ae4:	aa1503e0 	mov	x0, x21
    20004ae8:	a9425bf5 	ldp	x21, x22, [sp, #32]
    20004aec:	a8c67bfd 	ldp	x29, x30, [sp], #96
    20004af0:	d65f03c0 	ret
    20004af4:	97fff417 	bl	20001b50 <vApplicationTickHook>
    20004af8:	17ffffd9 	b	20004a5c <xTaskIncrementTick+0x12c>
    20004afc:	f9400c01 	ldr	x1, [x0, #24]
    20004b00:	911d02f4 	add	x20, x23, #0x740
    20004b04:	f9400c21 	ldr	x1, [x1, #24]
    20004b08:	f9400c21 	ldr	x1, [x1, #24]
    20004b0c:	f9400421 	ldr	x1, [x1, #8]
    20004b10:	f9001001 	str	x1, [x0, #32]
    20004b14:	f9401280 	ldr	x0, [x20, #32]
    20004b18:	eb0002df 	cmp	x22, x0
    20004b1c:	54fff843 	b.cc	20004a24 <xTaskIncrementTick+0xf4>  // b.lo, b.ul, b.last
    20004b20:	17ffff96 	b	20004978 <xTaskIncrementTick+0x48>
    20004b24:	a9446bf9 	ldp	x25, x26, [sp, #64]
    20004b28:	911d02e0 	add	x0, x23, #0x740
    20004b2c:	92800001 	mov	x1, #0xffffffffffffffff    	// #-1
    20004b30:	f9001001 	str	x1, [x0, #32]
    20004b34:	17ffffbe 	b	20004a2c <xTaskIncrementTick+0xfc>
    20004b38:	d2800015 	mov	x21, #0x0                   	// #0
    20004b3c:	f000001b 	adrp	x27, 20007000 <pt_config>
    20004b40:	17fffffa 	b	20004b28 <xTaskIncrementTick+0x1f8>
    20004b44:	d503201f 	nop
    20004b48:	d503201f 	nop
    20004b4c:	d503201f 	nop

0000000020004b50 <xTaskResumeAll>:
    20004b50:	a9bb7bfd 	stp	x29, x30, [sp, #-80]!
    20004b54:	910003fd 	mov	x29, sp
    20004b58:	a90153f3 	stp	x19, x20, [sp, #16]
    20004b5c:	a9025bf5 	stp	x21, x22, [sp, #32]
    20004b60:	90000036 	adrp	x22, 20008000 <timer_tick>
    20004b64:	911d02d3 	add	x19, x22, #0x740
    20004b68:	97fff79a 	bl	200029d0 <vPortEnterCritical>
    20004b6c:	f9411a60 	ldr	x0, [x19, #560]
    20004b70:	d1000400 	sub	x0, x0, #0x1
    20004b74:	f9011a60 	str	x0, [x19, #560]
    20004b78:	f9411a60 	ldr	x0, [x19, #560]
    20004b7c:	b5000720 	cbnz	x0, 20004c60 <xTaskResumeAll+0x110>
    20004b80:	f9402e60 	ldr	x0, [x19, #88]
    20004b84:	b40006e0 	cbz	x0, 20004c60 <xTaskResumeAll+0x110>
    20004b88:	f940fa60 	ldr	x0, [x19, #496]
    20004b8c:	b40004c0 	cbz	x0, 20004c24 <xTaskResumeAll+0xd4>
    20004b90:	f0000000 	adrp	x0, 20007000 <pt_config>
    20004b94:	a90363f7 	stp	x23, x24, [sp, #48]
    20004b98:	d2800035 	mov	x21, #0x1                   	// #1
    20004b9c:	91018277 	add	x23, x19, #0x60
    20004ba0:	f9405818 	ldr	x24, [x0, #176]
    20004ba4:	f90023f9 	str	x25, [sp, #64]
    20004ba8:	f9410660 	ldr	x0, [x19, #520]
    20004bac:	f9400c14 	ldr	x20, [x0, #24]
    20004bb0:	9100c280 	add	x0, x20, #0x30
    20004bb4:	91002299 	add	x25, x20, #0x8
    20004bb8:	97fff98e 	bl	200031f0 <uxListRemove>
    20004bbc:	aa1903e0 	mov	x0, x25
    20004bc0:	97fff98c 	bl	200031f0 <uxListRemove>
    20004bc4:	f9402e80 	ldr	x0, [x20, #88]
    20004bc8:	aa1903e1 	mov	x1, x25
    20004bcc:	f9400663 	ldr	x3, [x19, #8]
    20004bd0:	9ac022a2 	lsl	x2, x21, x0
    20004bd4:	8b000800 	add	x0, x0, x0, lsl #2
    20004bd8:	aa030042 	orr	x2, x2, x3
    20004bdc:	8b000ee0 	add	x0, x23, x0, lsl #3
    20004be0:	f9000662 	str	x2, [x19, #8]
    20004be4:	97fff95f 	bl	20003160 <vListInsertEnd>
    20004be8:	f9400300 	ldr	x0, [x24]
    20004bec:	f9402e81 	ldr	x1, [x20, #88]
    20004bf0:	f9402c00 	ldr	x0, [x0, #88]
    20004bf4:	eb00003f 	cmp	x1, x0
    20004bf8:	54000043 	b.cc	20004c00 <xTaskResumeAll+0xb0>  // b.lo, b.ul, b.last
    20004bfc:	f9012675 	str	x21, [x19, #584]
    20004c00:	f940fa60 	ldr	x0, [x19, #496]
    20004c04:	b5fffd20 	cbnz	x0, 20004ba8 <xTaskResumeAll+0x58>
    20004c08:	f9400e60 	ldr	x0, [x19, #24]
    20004c0c:	f9400000 	ldr	x0, [x0]
    20004c10:	b5000460 	cbnz	x0, 20004c9c <xTaskResumeAll+0x14c>
    20004c14:	92800000 	mov	x0, #0xffffffffffffffff    	// #-1
    20004c18:	a94363f7 	ldp	x23, x24, [sp, #48]
    20004c1c:	f94023f9 	ldr	x25, [sp, #64]
    20004c20:	f9001260 	str	x0, [x19, #32]
    20004c24:	911d02d4 	add	x20, x22, #0x740
    20004c28:	f9412293 	ldr	x19, [x20, #576]
    20004c2c:	b4000153 	cbz	x19, 20004c54 <xTaskResumeAll+0x104>
    20004c30:	d2800035 	mov	x21, #0x1                   	// #1
    20004c34:	d503201f 	nop
    20004c38:	97ffff3e 	bl	20004930 <xTaskIncrementTick>
    20004c3c:	f1000673 	subs	x19, x19, #0x1
    20004c40:	b4000040 	cbz	x0, 20004c48 <xTaskResumeAll+0xf8>
    20004c44:	f9012695 	str	x21, [x20, #584]
    20004c48:	54ffff81 	b.ne	20004c38 <xTaskResumeAll+0xe8>  // b.any
    20004c4c:	911d02c0 	add	x0, x22, #0x740
    20004c50:	f901201f 	str	xzr, [x0, #576]
    20004c54:	911d02d6 	add	x22, x22, #0x740
    20004c58:	f94126c0 	ldr	x0, [x22, #584]
    20004c5c:	b5000100 	cbnz	x0, 20004c7c <xTaskResumeAll+0x12c>
    20004c60:	97fff6f8 	bl	20002840 <vPortExitCritical>
    20004c64:	d2800013 	mov	x19, #0x0                   	// #0
    20004c68:	a9425bf5 	ldp	x21, x22, [sp, #32]
    20004c6c:	aa1303e0 	mov	x0, x19
    20004c70:	a94153f3 	ldp	x19, x20, [sp, #16]
    20004c74:	a8c57bfd 	ldp	x29, x30, [sp], #80
    20004c78:	d65f03c0 	ret
    20004c7c:	d4000001 	svc	#0x0
    20004c80:	d2800033 	mov	x19, #0x1                   	// #1
    20004c84:	97fff6ef 	bl	20002840 <vPortExitCritical>
    20004c88:	a9425bf5 	ldp	x21, x22, [sp, #32]
    20004c8c:	aa1303e0 	mov	x0, x19
    20004c90:	a94153f3 	ldp	x19, x20, [sp, #16]
    20004c94:	a8c57bfd 	ldp	x29, x30, [sp], #80
    20004c98:	d65f03c0 	ret
    20004c9c:	f9400e60 	ldr	x0, [x19, #24]
    20004ca0:	a94363f7 	ldp	x23, x24, [sp, #48]
    20004ca4:	f9400c00 	ldr	x0, [x0, #24]
    20004ca8:	f94023f9 	ldr	x25, [sp, #64]
    20004cac:	f9400c00 	ldr	x0, [x0, #24]
    20004cb0:	f9400400 	ldr	x0, [x0, #8]
    20004cb4:	f9001260 	str	x0, [x19, #32]
    20004cb8:	17ffffdb 	b	20004c24 <xTaskResumeAll+0xd4>
    20004cbc:	d503201f 	nop

0000000020004cc0 <vTaskDelay>:
    20004cc0:	b5000060 	cbnz	x0, 20004ccc <vTaskDelay+0xc>
    20004cc4:	d4000001 	svc	#0x0
    20004cc8:	d65f03c0 	ret
    20004ccc:	a9be7bfd 	stp	x29, x30, [sp, #-32]!
    20004cd0:	910003fd 	mov	x29, sp
    20004cd4:	f9000bf3 	str	x19, [sp, #16]
    20004cd8:	aa0003f3 	mov	x19, x0
    20004cdc:	97fffef9 	bl	200048c0 <vTaskSuspendAll>
    20004ce0:	aa1303e0 	mov	x0, x19
    20004ce4:	97fffd07 	bl	20004100 <prvAddCurrentTaskToDelayedList.isra.0>
    20004ce8:	97ffff9a 	bl	20004b50 <xTaskResumeAll>
    20004cec:	b5000040 	cbnz	x0, 20004cf4 <vTaskDelay+0x34>
    20004cf0:	d4000001 	svc	#0x0
    20004cf4:	f9400bf3 	ldr	x19, [sp, #16]
    20004cf8:	a8c27bfd 	ldp	x29, x30, [sp], #32
    20004cfc:	d65f03c0 	ret

0000000020004d00 <xTaskCatchUpTicks>:
    20004d00:	a9be7bfd 	stp	x29, x30, [sp, #-32]!
    20004d04:	910003fd 	mov	x29, sp
    20004d08:	f9000bf3 	str	x19, [sp, #16]
    20004d0c:	aa0003f3 	mov	x19, x0
    20004d10:	97fffeec 	bl	200048c0 <vTaskSuspendAll>
    20004d14:	90000021 	adrp	x1, 20008000 <timer_tick>
    20004d18:	911d0021 	add	x1, x1, #0x740
    20004d1c:	f9412022 	ldr	x2, [x1, #576]
    20004d20:	8b130040 	add	x0, x2, x19
    20004d24:	f9400bf3 	ldr	x19, [sp, #16]
    20004d28:	f9012020 	str	x0, [x1, #576]
    20004d2c:	a8c27bfd 	ldp	x29, x30, [sp], #32
    20004d30:	17ffff88 	b	20004b50 <xTaskResumeAll>
    20004d34:	d503201f 	nop
    20004d38:	d503201f 	nop
    20004d3c:	d503201f 	nop

0000000020004d40 <vTaskSwitchContext>:
    20004d40:	90000020 	adrp	x0, 20008000 <timer_tick>
    20004d44:	911d0000 	add	x0, x0, #0x740
    20004d48:	f9411801 	ldr	x1, [x0, #560]
    20004d4c:	b4000081 	cbz	x1, 20004d5c <vTaskSwitchContext+0x1c>
    20004d50:	d2800021 	mov	x1, #0x1                   	// #1
    20004d54:	f9012401 	str	x1, [x0, #584]
    20004d58:	d65f03c0 	ret
    20004d5c:	91018002 	add	x2, x0, #0x60
    20004d60:	f901241f 	str	xzr, [x0, #584]
    20004d64:	528003e1 	mov	w1, #0x1f                  	// #31
    20004d68:	f9400400 	ldr	x0, [x0, #8]
    20004d6c:	d2800203 	mov	x3, #0x10                  	// #16
    20004d70:	52800504 	mov	w4, #0x28                  	// #40
    20004d74:	5ac01000 	clz	w0, w0
    20004d78:	4b000020 	sub	w0, w1, w0
    20004d7c:	937e7c01 	sbfiz	x1, x0, #2, #32
    20004d80:	8b20c021 	add	x1, x1, w0, sxtw
    20004d84:	8b010c41 	add	x1, x2, x1, lsl #3
    20004d88:	9b240c00 	smaddl	x0, w0, w4, x3
    20004d8c:	f9400423 	ldr	x3, [x1, #8]
    20004d90:	8b000042 	add	x2, x2, x0
    20004d94:	f9400460 	ldr	x0, [x3, #8]
    20004d98:	eb02001f 	cmp	x0, x2
    20004d9c:	f9000420 	str	x0, [x1, #8]
    20004da0:	540000c0 	b.eq	20004db8 <vTaskSwitchContext+0x78>  // b.none
    20004da4:	f0000001 	adrp	x1, 20007000 <pt_config>
    20004da8:	f9400c02 	ldr	x2, [x0, #24]
    20004dac:	f9405820 	ldr	x0, [x1, #176]
    20004db0:	f9000002 	str	x2, [x0]
    20004db4:	d65f03c0 	ret
    20004db8:	f9400400 	ldr	x0, [x0, #8]
    20004dbc:	f9000420 	str	x0, [x1, #8]
    20004dc0:	f0000001 	adrp	x1, 20007000 <pt_config>
    20004dc4:	f9400c02 	ldr	x2, [x0, #24]
    20004dc8:	f9405820 	ldr	x0, [x1, #176]
    20004dcc:	f9000002 	str	x2, [x0]
    20004dd0:	17fffff9 	b	20004db4 <vTaskSwitchContext+0x74>
    20004dd4:	d503201f 	nop
    20004dd8:	d503201f 	nop
    20004ddc:	d503201f 	nop

0000000020004de0 <vTaskPlaceOnEventList>:
    20004de0:	f0000002 	adrp	x2, 20007000 <pt_config>
    20004de4:	a9be7bfd 	stp	x29, x30, [sp, #-32]!
    20004de8:	910003fd 	mov	x29, sp
    20004dec:	f9405842 	ldr	x2, [x2, #176]
    20004df0:	f9000bf3 	str	x19, [sp, #16]
    20004df4:	aa0103f3 	mov	x19, x1
    20004df8:	f9400041 	ldr	x1, [x2]
    20004dfc:	9100c021 	add	x1, x1, #0x30
    20004e00:	97fff8e4 	bl	20003190 <vListInsert>
    20004e04:	aa1303e0 	mov	x0, x19
    20004e08:	f9400bf3 	ldr	x19, [sp, #16]
    20004e0c:	a8c27bfd 	ldp	x29, x30, [sp], #32
    20004e10:	17fffcbc 	b	20004100 <prvAddCurrentTaskToDelayedList.isra.0>
    20004e14:	d503201f 	nop
    20004e18:	d503201f 	nop
    20004e1c:	d503201f 	nop

0000000020004e20 <vTaskPlaceOnUnorderedEventList>:
    20004e20:	f0000003 	adrp	x3, 20007000 <pt_config>
    20004e24:	a9be7bfd 	stp	x29, x30, [sp, #-32]!
    20004e28:	910003fd 	mov	x29, sp
    20004e2c:	b2610024 	orr	x4, x1, #0x80000000
    20004e30:	f9405863 	ldr	x3, [x3, #176]
    20004e34:	f9000bf3 	str	x19, [sp, #16]
    20004e38:	aa0203f3 	mov	x19, x2
    20004e3c:	f9400062 	ldr	x2, [x3]
    20004e40:	f9400061 	ldr	x1, [x3]
    20004e44:	f9001844 	str	x4, [x2, #48]
    20004e48:	9100c021 	add	x1, x1, #0x30
    20004e4c:	97fff8c5 	bl	20003160 <vListInsertEnd>
    20004e50:	aa1303e0 	mov	x0, x19
    20004e54:	f9400bf3 	ldr	x19, [sp, #16]
    20004e58:	a8c27bfd 	ldp	x29, x30, [sp], #32
    20004e5c:	17fffca9 	b	20004100 <prvAddCurrentTaskToDelayedList.isra.0>

0000000020004e60 <vTaskPlaceOnEventListRestricted>:
    20004e60:	f0000003 	adrp	x3, 20007000 <pt_config>
    20004e64:	a9be7bfd 	stp	x29, x30, [sp, #-32]!
    20004e68:	910003fd 	mov	x29, sp
    20004e6c:	f9405863 	ldr	x3, [x3, #176]
    20004e70:	a90153f3 	stp	x19, x20, [sp, #16]
    20004e74:	aa0103f3 	mov	x19, x1
    20004e78:	aa0203f4 	mov	x20, x2
    20004e7c:	f9400061 	ldr	x1, [x3]
    20004e80:	9100c021 	add	x1, x1, #0x30
    20004e84:	97fff8b7 	bl	20003160 <vListInsertEnd>
    20004e88:	f100029f 	cmp	x20, #0x0
    20004e8c:	da9f0260 	csinv	x0, x19, xzr, eq	// eq = none
    20004e90:	a94153f3 	ldp	x19, x20, [sp, #16]
    20004e94:	a8c27bfd 	ldp	x29, x30, [sp], #32
    20004e98:	17fffc9a 	b	20004100 <prvAddCurrentTaskToDelayedList.isra.0>
    20004e9c:	d503201f 	nop

0000000020004ea0 <xTaskRemoveFromEventList>:
    20004ea0:	a9bd7bfd 	stp	x29, x30, [sp, #-48]!
    20004ea4:	910003fd 	mov	x29, sp
    20004ea8:	f9400c00 	ldr	x0, [x0, #24]
    20004eac:	a90153f3 	stp	x19, x20, [sp, #16]
    20004eb0:	a9025bf5 	stp	x21, x22, [sp, #32]
    20004eb4:	90000035 	adrp	x21, 20008000 <timer_tick>
    20004eb8:	911d02b4 	add	x20, x21, #0x740
    20004ebc:	f9400c13 	ldr	x19, [x0, #24]
    20004ec0:	9100c276 	add	x22, x19, #0x30
    20004ec4:	aa1603e0 	mov	x0, x22
    20004ec8:	97fff8ca 	bl	200031f0 <uxListRemove>
    20004ecc:	f9411a80 	ldr	x0, [x20, #560]
    20004ed0:	b50003e0 	cbnz	x0, 20004f4c <xTaskRemoveFromEventList+0xac>
    20004ed4:	91002276 	add	x22, x19, #0x8
    20004ed8:	aa1603e0 	mov	x0, x22
    20004edc:	97fff8c5 	bl	200031f0 <uxListRemove>
    20004ee0:	f9402e63 	ldr	x3, [x19, #88]
    20004ee4:	d2800022 	mov	x2, #0x1                   	// #1
    20004ee8:	91018280 	add	x0, x20, #0x60
    20004eec:	aa1603e1 	mov	x1, x22
    20004ef0:	f9400684 	ldr	x4, [x20, #8]
    20004ef4:	9ac32042 	lsl	x2, x2, x3
    20004ef8:	8b030863 	add	x3, x3, x3, lsl #2
    20004efc:	aa040042 	orr	x2, x2, x4
    20004f00:	8b030c00 	add	x0, x0, x3, lsl #3
    20004f04:	f9000682 	str	x2, [x20, #8]
    20004f08:	97fff896 	bl	20003160 <vListInsertEnd>
    20004f0c:	f0000001 	adrp	x1, 20007000 <pt_config>
    20004f10:	f9402e62 	ldr	x2, [x19, #88]
    20004f14:	d2800000 	mov	x0, #0x0                   	// #0
    20004f18:	f9405821 	ldr	x1, [x1, #176]
    20004f1c:	f9400021 	ldr	x1, [x1]
    20004f20:	f9402c21 	ldr	x1, [x1, #88]
    20004f24:	eb01005f 	cmp	x2, x1
    20004f28:	540000a9 	b.ls	20004f3c <xTaskRemoveFromEventList+0x9c>  // b.plast
    20004f2c:	d2800021 	mov	x1, #0x1                   	// #1
    20004f30:	911d02b5 	add	x21, x21, #0x740
    20004f34:	aa0103e0 	mov	x0, x1
    20004f38:	f90126a1 	str	x1, [x21, #584]
    20004f3c:	a94153f3 	ldp	x19, x20, [sp, #16]
    20004f40:	a9425bf5 	ldp	x21, x22, [sp, #32]
    20004f44:	a8c37bfd 	ldp	x29, x30, [sp], #48
    20004f48:	d65f03c0 	ret
    20004f4c:	aa1603e1 	mov	x1, x22
    20004f50:	9107c280 	add	x0, x20, #0x1f0
    20004f54:	97fff883 	bl	20003160 <vListInsertEnd>
    20004f58:	17ffffed 	b	20004f0c <xTaskRemoveFromEventList+0x6c>
    20004f5c:	d503201f 	nop

0000000020004f60 <vTaskRemoveFromUnorderedEventList>:
    20004f60:	a9bd7bfd 	stp	x29, x30, [sp, #-48]!
    20004f64:	910003fd 	mov	x29, sp
    20004f68:	b2610021 	orr	x1, x1, #0x80000000
    20004f6c:	a90153f3 	stp	x19, x20, [sp, #16]
    20004f70:	90000033 	adrp	x19, 20008000 <timer_tick>
    20004f74:	911d0273 	add	x19, x19, #0x740
    20004f78:	f9400c14 	ldr	x20, [x0, #24]
    20004f7c:	a9025bf5 	stp	x21, x22, [sp, #32]
    20004f80:	d2800036 	mov	x22, #0x1                   	// #1
    20004f84:	f9000001 	str	x1, [x0]
    20004f88:	97fff89a 	bl	200031f0 <uxListRemove>
    20004f8c:	91002295 	add	x21, x20, #0x8
    20004f90:	aa1503e0 	mov	x0, x21
    20004f94:	97fff897 	bl	200031f0 <uxListRemove>
    20004f98:	f9402e82 	ldr	x2, [x20, #88]
    20004f9c:	91018260 	add	x0, x19, #0x60
    20004fa0:	aa1503e1 	mov	x1, x21
    20004fa4:	f9400664 	ldr	x4, [x19, #8]
    20004fa8:	9ac222c3 	lsl	x3, x22, x2
    20004fac:	8b020842 	add	x2, x2, x2, lsl #2
    20004fb0:	aa040063 	orr	x3, x3, x4
    20004fb4:	8b020c00 	add	x0, x0, x2, lsl #3
    20004fb8:	f9000663 	str	x3, [x19, #8]
    20004fbc:	97fff869 	bl	20003160 <vListInsertEnd>
    20004fc0:	f0000000 	adrp	x0, 20007000 <pt_config>
    20004fc4:	f9402e81 	ldr	x1, [x20, #88]
    20004fc8:	f9405800 	ldr	x0, [x0, #176]
    20004fcc:	f9400000 	ldr	x0, [x0]
    20004fd0:	f9402c00 	ldr	x0, [x0, #88]
    20004fd4:	eb00003f 	cmp	x1, x0
    20004fd8:	54000049 	b.ls	20004fe0 <vTaskRemoveFromUnorderedEventList+0x80>  // b.plast
    20004fdc:	f9012676 	str	x22, [x19, #584]
    20004fe0:	a94153f3 	ldp	x19, x20, [sp, #16]
    20004fe4:	a9425bf5 	ldp	x21, x22, [sp, #32]
    20004fe8:	a8c37bfd 	ldp	x29, x30, [sp], #48
    20004fec:	d65f03c0 	ret

0000000020004ff0 <vTaskSetTimeOutState>:
    20004ff0:	a9be7bfd 	stp	x29, x30, [sp, #-32]!
    20004ff4:	910003fd 	mov	x29, sp
    20004ff8:	f9000bf3 	str	x19, [sp, #16]
    20004ffc:	aa0003f3 	mov	x19, x0
    20005000:	97fff674 	bl	200029d0 <vPortEnterCritical>
    20005004:	f0000000 	adrp	x0, 20008000 <timer_tick>
    20005008:	911d0001 	add	x1, x0, #0x740
    2000500c:	f9411c21 	ldr	x1, [x1, #568]
    20005010:	f943a000 	ldr	x0, [x0, #1856]
    20005014:	a9000261 	stp	x1, x0, [x19]
    20005018:	f9400bf3 	ldr	x19, [sp, #16]
    2000501c:	a8c27bfd 	ldp	x29, x30, [sp], #32
    20005020:	17fff608 	b	20002840 <vPortExitCritical>
    20005024:	d503201f 	nop
    20005028:	d503201f 	nop
    2000502c:	d503201f 	nop

0000000020005030 <vTaskInternalSetTimeOutState>:
    20005030:	f0000001 	adrp	x1, 20008000 <timer_tick>
    20005034:	911d0022 	add	x2, x1, #0x740
    20005038:	f9411c42 	ldr	x2, [x2, #568]
    2000503c:	f943a021 	ldr	x1, [x1, #1856]
    20005040:	a9000402 	stp	x2, x1, [x0]
    20005044:	d65f03c0 	ret
    20005048:	d503201f 	nop
    2000504c:	d503201f 	nop

0000000020005050 <xTaskCheckForTimeOut>:
    20005050:	a9be7bfd 	stp	x29, x30, [sp, #-32]!
    20005054:	910003fd 	mov	x29, sp
    20005058:	a90153f3 	stp	x19, x20, [sp, #16]
    2000505c:	aa0003f3 	mov	x19, x0
    20005060:	aa0103f4 	mov	x20, x1
    20005064:	97fff65b 	bl	200029d0 <vPortEnterCritical>
    20005068:	f0000000 	adrp	x0, 20008000 <timer_tick>
    2000506c:	911d0001 	add	x1, x0, #0x740
    20005070:	f943a000 	ldr	x0, [x0, #1856]
    20005074:	f9411c22 	ldr	x2, [x1, #568]
    20005078:	a9400663 	ldp	x3, x1, [x19]
    2000507c:	eb02007f 	cmp	x3, x2
    20005080:	fa401022 	ccmp	x1, x0, #0x2, ne	// ne = any
    20005084:	540000c9 	b.ls	2000509c <xTaskCheckForTimeOut+0x4c>  // b.plast
    20005088:	f9400282 	ldr	x2, [x20]
    2000508c:	cb010003 	sub	x3, x0, x1
    20005090:	eb03005f 	cmp	x2, x3
    20005094:	54000108 	b.hi	200050b4 <xTaskCheckForTimeOut+0x64>  // b.pmore
    20005098:	f900029f 	str	xzr, [x20]
    2000509c:	97fff5e9 	bl	20002840 <vPortExitCritical>
    200050a0:	d2800033 	mov	x19, #0x1                   	// #1
    200050a4:	aa1303e0 	mov	x0, x19
    200050a8:	a94153f3 	ldp	x19, x20, [sp, #16]
    200050ac:	a8c27bfd 	ldp	x29, x30, [sp], #32
    200050b0:	d65f03c0 	ret
    200050b4:	cb000042 	sub	x2, x2, x0
    200050b8:	aa1303e0 	mov	x0, x19
    200050bc:	8b010042 	add	x2, x2, x1
    200050c0:	d2800013 	mov	x19, #0x0                   	// #0
    200050c4:	f9000282 	str	x2, [x20]
    200050c8:	97ffffda 	bl	20005030 <vTaskInternalSetTimeOutState>
    200050cc:	97fff5dd 	bl	20002840 <vPortExitCritical>
    200050d0:	aa1303e0 	mov	x0, x19
    200050d4:	a94153f3 	ldp	x19, x20, [sp, #16]
    200050d8:	a8c27bfd 	ldp	x29, x30, [sp], #32
    200050dc:	d65f03c0 	ret

00000000200050e0 <vTaskMissedYield>:
    200050e0:	d2800021 	mov	x1, #0x1                   	// #1
    200050e4:	f0000000 	adrp	x0, 20008000 <timer_tick>
    200050e8:	911d0000 	add	x0, x0, #0x740
    200050ec:	f9012401 	str	x1, [x0, #584]
    200050f0:	d65f03c0 	ret
    200050f4:	d503201f 	nop
    200050f8:	d503201f 	nop
    200050fc:	d503201f 	nop

0000000020005100 <vTaskSetThreadLocalStoragePointer>:
    20005100:	f1001c3f 	cmp	x1, #0x7
    20005104:	5400008c 	b.gt	20005114 <vTaskSetThreadLocalStoragePointer+0x14>
    20005108:	b4000080 	cbz	x0, 20005118 <vTaskSetThreadLocalStoragePointer+0x18>
    2000510c:	8b010c01 	add	x1, x0, x1, lsl #3
    20005110:	f9004422 	str	x2, [x1, #136]
    20005114:	d65f03c0 	ret
    20005118:	d0000000 	adrp	x0, 20007000 <pt_config>
    2000511c:	f9405800 	ldr	x0, [x0, #176]
    20005120:	f9400000 	ldr	x0, [x0]
    20005124:	8b010c01 	add	x1, x0, x1, lsl #3
    20005128:	f9004422 	str	x2, [x1, #136]
    2000512c:	17fffffa 	b	20005114 <vTaskSetThreadLocalStoragePointer+0x14>

0000000020005130 <pvTaskGetThreadLocalStoragePointer>:
    20005130:	f1001c3f 	cmp	x1, #0x7
    20005134:	5400016c 	b.gt	20005160 <pvTaskGetThreadLocalStoragePointer+0x30>
    20005138:	b4000080 	cbz	x0, 20005148 <pvTaskGetThreadLocalStoragePointer+0x18>
    2000513c:	8b010c01 	add	x1, x0, x1, lsl #3
    20005140:	f9404420 	ldr	x0, [x1, #136]
    20005144:	d65f03c0 	ret
    20005148:	d0000000 	adrp	x0, 20007000 <pt_config>
    2000514c:	f9405800 	ldr	x0, [x0, #176]
    20005150:	f9400000 	ldr	x0, [x0]
    20005154:	8b010c01 	add	x1, x0, x1, lsl #3
    20005158:	f9404420 	ldr	x0, [x1, #136]
    2000515c:	17fffffa 	b	20005144 <pvTaskGetThreadLocalStoragePointer+0x14>
    20005160:	d2800000 	mov	x0, #0x0                   	// #0
    20005164:	d65f03c0 	ret
    20005168:	d503201f 	nop
    2000516c:	d503201f 	nop

0000000020005170 <xTaskGetCurrentTaskHandle>:
    20005170:	d0000000 	adrp	x0, 20007000 <pt_config>
    20005174:	f9405800 	ldr	x0, [x0, #176]
    20005178:	f9400000 	ldr	x0, [x0]
    2000517c:	d65f03c0 	ret

0000000020005180 <xTaskGetSchedulerState>:
    20005180:	f0000001 	adrp	x1, 20008000 <timer_tick>
    20005184:	911d0021 	add	x1, x1, #0x740
    20005188:	f9410c22 	ldr	x2, [x1, #536]
    2000518c:	d2800020 	mov	x0, #0x1                   	// #1
    20005190:	b40000a2 	cbz	x2, 200051a4 <xTaskGetSchedulerState+0x24>
    20005194:	f9411820 	ldr	x0, [x1, #560]
    20005198:	f100001f 	cmp	x0, #0x0
    2000519c:	9a9f17e0 	cset	x0, eq	// eq = none
    200051a0:	d37ff800 	lsl	x0, x0, #1
    200051a4:	d65f03c0 	ret
    200051a8:	d503201f 	nop
    200051ac:	d503201f 	nop

00000000200051b0 <xTaskPriorityInherit>:
    200051b0:	b40004c0 	cbz	x0, 20005248 <xTaskPriorityInherit+0x98>
    200051b4:	a9bc7bfd 	stp	x29, x30, [sp, #-64]!
    200051b8:	910003fd 	mov	x29, sp
    200051bc:	a90153f3 	stp	x19, x20, [sp, #16]
    200051c0:	d0000014 	adrp	x20, 20007000 <pt_config>
    200051c4:	aa0003f3 	mov	x19, x0
    200051c8:	f9405a81 	ldr	x1, [x20, #176]
    200051cc:	f9402c00 	ldr	x0, [x0, #88]
    200051d0:	f9400022 	ldr	x2, [x1]
    200051d4:	f9402c42 	ldr	x2, [x2, #88]
    200051d8:	eb02001f 	cmp	x0, x2
    200051dc:	54000123 	b.cc	20005200 <xTaskPriorityInherit+0x50>  // b.lo, b.ul, b.last
    200051e0:	f9400020 	ldr	x0, [x1]
    200051e4:	f9403e61 	ldr	x1, [x19, #120]
    200051e8:	f9402c00 	ldr	x0, [x0, #88]
    200051ec:	eb00003f 	cmp	x1, x0
    200051f0:	9a9f27e0 	cset	x0, cc	// cc = lo, ul, last
    200051f4:	a94153f3 	ldp	x19, x20, [sp, #16]
    200051f8:	a8c47bfd 	ldp	x29, x30, [sp], #64
    200051fc:	d65f03c0 	ret
    20005200:	f9401a62 	ldr	x2, [x19, #48]
    20005204:	a9025bf5 	stp	x21, x22, [sp, #32]
    20005208:	36f80242 	tbz	w2, #31, 20005250 <xTaskPriorityInherit+0xa0>
    2000520c:	8b000800 	add	x0, x0, x0, lsl #2
    20005210:	f0000015 	adrp	x21, 20008000 <timer_tick>
    20005214:	911d02b6 	add	x22, x21, #0x740
    20005218:	f9401661 	ldr	x1, [x19, #40]
    2000521c:	910182c2 	add	x2, x22, #0x60
    20005220:	8b000c40 	add	x0, x2, x0, lsl #3
    20005224:	eb00003f 	cmp	x1, x0
    20005228:	54000200 	b.eq	20005268 <xTaskPriorityInherit+0xb8>  // b.none
    2000522c:	f9405a94 	ldr	x20, [x20, #176]
    20005230:	f9400280 	ldr	x0, [x20]
    20005234:	f9402c00 	ldr	x0, [x0, #88]
    20005238:	f9002e60 	str	x0, [x19, #88]
    2000523c:	a9425bf5 	ldp	x21, x22, [sp, #32]
    20005240:	d2800020 	mov	x0, #0x1                   	// #1
    20005244:	17ffffec 	b	200051f4 <xTaskPriorityInherit+0x44>
    20005248:	d2800000 	mov	x0, #0x0                   	// #0
    2000524c:	d65f03c0 	ret
    20005250:	f9400022 	ldr	x2, [x1]
    20005254:	d2800101 	mov	x1, #0x8                   	// #8
    20005258:	f9402c42 	ldr	x2, [x2, #88]
    2000525c:	cb020021 	sub	x1, x1, x2
    20005260:	f9001a61 	str	x1, [x19, #48]
    20005264:	17ffffea 	b	2000520c <xTaskPriorityInherit+0x5c>
    20005268:	f9001bf7 	str	x23, [sp, #48]
    2000526c:	91002277 	add	x23, x19, #0x8
    20005270:	aa1703e0 	mov	x0, x23
    20005274:	97fff7df 	bl	200031f0 <uxListRemove>
    20005278:	b50000e0 	cbnz	x0, 20005294 <xTaskPriorityInherit+0xe4>
    2000527c:	f9402e62 	ldr	x2, [x19, #88]
    20005280:	d2800020 	mov	x0, #0x1                   	// #1
    20005284:	f94006c1 	ldr	x1, [x22, #8]
    20005288:	9ac22000 	lsl	x0, x0, x2
    2000528c:	8a200020 	bic	x0, x1, x0
    20005290:	f90006c0 	str	x0, [x22, #8]
    20005294:	f9405a94 	ldr	x20, [x20, #176]
    20005298:	911d02b5 	add	x21, x21, #0x740
    2000529c:	d2800023 	mov	x3, #0x1                   	// #1
    200052a0:	910182a0 	add	x0, x21, #0x60
    200052a4:	aa1703e1 	mov	x1, x23
    200052a8:	f9400282 	ldr	x2, [x20]
    200052ac:	f94006a5 	ldr	x5, [x21, #8]
    200052b0:	f9402c44 	ldr	x4, [x2, #88]
    200052b4:	9ac42062 	lsl	x2, x3, x4
    200052b8:	8b040883 	add	x3, x4, x4, lsl #2
    200052bc:	f9002e64 	str	x4, [x19, #88]
    200052c0:	aa050042 	orr	x2, x2, x5
    200052c4:	8b030c00 	add	x0, x0, x3, lsl #3
    200052c8:	f90006a2 	str	x2, [x21, #8]
    200052cc:	97fff7a5 	bl	20003160 <vListInsertEnd>
    200052d0:	f9401bf7 	ldr	x23, [sp, #48]
    200052d4:	17ffffda 	b	2000523c <xTaskPriorityInherit+0x8c>
    200052d8:	d503201f 	nop
    200052dc:	d503201f 	nop

00000000200052e0 <xTaskPriorityDisinherit>:
    200052e0:	b40001e0 	cbz	x0, 2000531c <xTaskPriorityDisinherit+0x3c>
    200052e4:	a9bd7bfd 	stp	x29, x30, [sp, #-48]!
    200052e8:	910003fd 	mov	x29, sp
    200052ec:	f9402c02 	ldr	x2, [x0, #88]
    200052f0:	a90153f3 	stp	x19, x20, [sp, #16]
    200052f4:	aa0003f3 	mov	x19, x0
    200052f8:	a9478001 	ldp	x1, x0, [x0, #120]
    200052fc:	f1000400 	subs	x0, x0, #0x1
    20005300:	fa410044 	ccmp	x2, x1, #0x4, eq	// eq = none
    20005304:	f9004260 	str	x0, [x19, #128]
    20005308:	d2800000 	mov	x0, #0x0                   	// #0
    2000530c:	540000c1 	b.ne	20005324 <xTaskPriorityDisinherit+0x44>  // b.any
    20005310:	a94153f3 	ldp	x19, x20, [sp, #16]
    20005314:	a8c37bfd 	ldp	x29, x30, [sp], #48
    20005318:	d65f03c0 	ret
    2000531c:	d2800000 	mov	x0, #0x0                   	// #0
    20005320:	d65f03c0 	ret
    20005324:	f90013f5 	str	x21, [sp, #32]
    20005328:	91002275 	add	x21, x19, #0x8
    2000532c:	aa1503e0 	mov	x0, x21
    20005330:	97fff7b0 	bl	200031f0 <uxListRemove>
    20005334:	f0000002 	adrp	x2, 20008000 <timer_tick>
    20005338:	b50001a0 	cbnz	x0, 2000536c <xTaskPriorityDisinherit+0x8c>
    2000533c:	f9402e61 	ldr	x1, [x19, #88]
    20005340:	911d0043 	add	x3, x2, #0x740
    20005344:	91018064 	add	x4, x3, #0x60
    20005348:	8b010820 	add	x0, x1, x1, lsl #2
    2000534c:	d37df000 	lsl	x0, x0, #3
    20005350:	f8606880 	ldr	x0, [x4, x0]
    20005354:	b50000c0 	cbnz	x0, 2000536c <xTaskPriorityDisinherit+0x8c>
    20005358:	f9400464 	ldr	x4, [x3, #8]
    2000535c:	d2800020 	mov	x0, #0x1                   	// #1
    20005360:	9ac12000 	lsl	x0, x0, x1
    20005364:	8a200080 	bic	x0, x4, x0
    20005368:	f9000460 	str	x0, [x3, #8]
    2000536c:	f9403e63 	ldr	x3, [x19, #120]
    20005370:	911d0042 	add	x2, x2, #0x740
    20005374:	d2800034 	mov	x20, #0x1                   	// #1
    20005378:	d2800105 	mov	x5, #0x8                   	// #8
    2000537c:	91018040 	add	x0, x2, #0x60
    20005380:	f9400447 	ldr	x7, [x2, #8]
    20005384:	aa1503e1 	mov	x1, x21
    20005388:	8b030866 	add	x6, x3, x3, lsl #2
    2000538c:	9ac32284 	lsl	x4, x20, x3
    20005390:	cb0300a5 	sub	x5, x5, x3
    20005394:	f9002e63 	str	x3, [x19, #88]
    20005398:	aa070083 	orr	x3, x4, x7
    2000539c:	8b060c00 	add	x0, x0, x6, lsl #3
    200053a0:	f9001a65 	str	x5, [x19, #48]
    200053a4:	f9000443 	str	x3, [x2, #8]
    200053a8:	97fff76e 	bl	20003160 <vListInsertEnd>
    200053ac:	f94013f5 	ldr	x21, [sp, #32]
    200053b0:	aa1403e0 	mov	x0, x20
    200053b4:	a94153f3 	ldp	x19, x20, [sp, #16]
    200053b8:	a8c37bfd 	ldp	x29, x30, [sp], #48
    200053bc:	d65f03c0 	ret

00000000200053c0 <vTaskPriorityDisinheritAfterTimeout>:
    200053c0:	b4000220 	cbz	x0, 20005404 <vTaskPriorityDisinheritAfterTimeout+0x44>
    200053c4:	a9bd7bfd 	stp	x29, x30, [sp, #-48]!
    200053c8:	910003fd 	mov	x29, sp
    200053cc:	f9402c02 	ldr	x2, [x0, #88]
    200053d0:	a90153f3 	stp	x19, x20, [sp, #16]
    200053d4:	aa0003f3 	mov	x19, x0
    200053d8:	f9403c00 	ldr	x0, [x0, #120]
    200053dc:	eb01001f 	cmp	x0, x1
    200053e0:	9a812000 	csel	x0, x0, x1, cs	// cs = hs, nlast
    200053e4:	eb00005f 	cmp	x2, x0
    200053e8:	54000080 	b.eq	200053f8 <vTaskPriorityDisinheritAfterTimeout+0x38>  // b.none
    200053ec:	f9404261 	ldr	x1, [x19, #128]
    200053f0:	f100043f 	cmp	x1, #0x1
    200053f4:	540000a0 	b.eq	20005408 <vTaskPriorityDisinheritAfterTimeout+0x48>  // b.none
    200053f8:	a94153f3 	ldp	x19, x20, [sp, #16]
    200053fc:	a8c37bfd 	ldp	x29, x30, [sp], #48
    20005400:	d65f03c0 	ret
    20005404:	d65f03c0 	ret
    20005408:	a9025bf5 	stp	x21, x22, [sp, #32]
    2000540c:	f9401a61 	ldr	x1, [x19, #48]
    20005410:	f9002e60 	str	x0, [x19, #88]
    20005414:	37f80081 	tbnz	w1, #31, 20005424 <vTaskPriorityDisinheritAfterTimeout+0x64>
    20005418:	d2800101 	mov	x1, #0x8                   	// #8
    2000541c:	cb000020 	sub	x0, x1, x0
    20005420:	f9001a60 	str	x0, [x19, #48]
    20005424:	f9401660 	ldr	x0, [x19, #40]
    20005428:	8b020842 	add	x2, x2, x2, lsl #2
    2000542c:	f0000014 	adrp	x20, 20008000 <timer_tick>
    20005430:	911d0295 	add	x21, x20, #0x740
    20005434:	910182a1 	add	x1, x21, #0x60
    20005438:	8b020c22 	add	x2, x1, x2, lsl #3
    2000543c:	eb02001f 	cmp	x0, x2
    20005440:	540000a0 	b.eq	20005454 <vTaskPriorityDisinheritAfterTimeout+0x94>  // b.none
    20005444:	a94153f3 	ldp	x19, x20, [sp, #16]
    20005448:	a9425bf5 	ldp	x21, x22, [sp, #32]
    2000544c:	a8c37bfd 	ldp	x29, x30, [sp], #48
    20005450:	d65f03c0 	ret
    20005454:	91002276 	add	x22, x19, #0x8
    20005458:	aa1603e0 	mov	x0, x22
    2000545c:	97fff765 	bl	200031f0 <uxListRemove>
    20005460:	b4000200 	cbz	x0, 200054a0 <vTaskPriorityDisinheritAfterTimeout+0xe0>
    20005464:	f9402e60 	ldr	x0, [x19, #88]
    20005468:	d2800022 	mov	x2, #0x1                   	// #1
    2000546c:	9ac02042 	lsl	x2, x2, x0
    20005470:	911d0294 	add	x20, x20, #0x740
    20005474:	8b000800 	add	x0, x0, x0, lsl #2
    20005478:	aa1603e1 	mov	x1, x22
    2000547c:	f9400683 	ldr	x3, [x20, #8]
    20005480:	91018284 	add	x4, x20, #0x60
    20005484:	a9425bf5 	ldp	x21, x22, [sp, #32]
    20005488:	8b000c80 	add	x0, x4, x0, lsl #3
    2000548c:	aa020063 	orr	x3, x3, x2
    20005490:	f9000683 	str	x3, [x20, #8]
    20005494:	a94153f3 	ldp	x19, x20, [sp, #16]
    20005498:	a8c37bfd 	ldp	x29, x30, [sp], #48
    2000549c:	17fff731 	b	20003160 <vListInsertEnd>
    200054a0:	f9402e60 	ldr	x0, [x19, #88]
    200054a4:	d2800022 	mov	x2, #0x1                   	// #1
    200054a8:	f94006a1 	ldr	x1, [x21, #8]
    200054ac:	9ac02042 	lsl	x2, x2, x0
    200054b0:	8a220021 	bic	x1, x1, x2
    200054b4:	f90006a1 	str	x1, [x21, #8]
    200054b8:	17ffffee 	b	20005470 <vTaskPriorityDisinheritAfterTimeout+0xb0>
    200054bc:	d503201f 	nop

00000000200054c0 <uxTaskResetEventItemValue>:
    200054c0:	d0000000 	adrp	x0, 20007000 <pt_config>
    200054c4:	d2800101 	mov	x1, #0x8                   	// #8
    200054c8:	f9405800 	ldr	x0, [x0, #176]
    200054cc:	f9400004 	ldr	x4, [x0]
    200054d0:	f9400003 	ldr	x3, [x0]
    200054d4:	f9400002 	ldr	x2, [x0]
    200054d8:	f9401880 	ldr	x0, [x4, #48]
    200054dc:	f9402c63 	ldr	x3, [x3, #88]
    200054e0:	cb030021 	sub	x1, x1, x3
    200054e4:	f9001841 	str	x1, [x2, #48]
    200054e8:	d65f03c0 	ret
    200054ec:	d503201f 	nop

00000000200054f0 <pvTaskIncrementMutexHeldCount>:
    200054f0:	d0000000 	adrp	x0, 20007000 <pt_config>
    200054f4:	f9405801 	ldr	x1, [x0, #176]
    200054f8:	f9400022 	ldr	x2, [x1]
    200054fc:	b40000a2 	cbz	x2, 20005510 <pvTaskIncrementMutexHeldCount+0x20>
    20005500:	f9400022 	ldr	x2, [x1]
    20005504:	f9404041 	ldr	x1, [x2, #128]
    20005508:	91000421 	add	x1, x1, #0x1
    2000550c:	f9004041 	str	x1, [x2, #128]
    20005510:	f9405800 	ldr	x0, [x0, #176]
    20005514:	f9400000 	ldr	x0, [x0]
    20005518:	d65f03c0 	ret
    2000551c:	d503201f 	nop

0000000020005520 <ulTaskNotifyTake>:
    20005520:	a9bd7bfd 	stp	x29, x30, [sp, #-48]!
    20005524:	910003fd 	mov	x29, sp
    20005528:	a90153f3 	stp	x19, x20, [sp, #16]
    2000552c:	aa0103f4 	mov	x20, x1
    20005530:	d0000013 	adrp	x19, 20007000 <pt_config>
    20005534:	f90013f5 	str	x21, [sp, #32]
    20005538:	aa0003f5 	mov	x21, x0
    2000553c:	97fff525 	bl	200029d0 <vPortEnterCritical>
    20005540:	f9405a61 	ldr	x1, [x19, #176]
    20005544:	f9400020 	ldr	x0, [x1]
    20005548:	b940c800 	ldr	w0, [x0, #200]
    2000554c:	350000a0 	cbnz	w0, 20005560 <ulTaskNotifyTake+0x40>
    20005550:	f9400020 	ldr	x0, [x1]
    20005554:	52800021 	mov	w1, #0x1                   	// #1
    20005558:	39033001 	strb	w1, [x0, #204]
    2000555c:	b50002d4 	cbnz	x20, 200055b4 <ulTaskNotifyTake+0x94>
    20005560:	97fff4b8 	bl	20002840 <vPortExitCritical>
    20005564:	97fff51b 	bl	200029d0 <vPortEnterCritical>
    20005568:	f9405a61 	ldr	x1, [x19, #176]
    2000556c:	f9400020 	ldr	x0, [x1]
    20005570:	b940c814 	ldr	w20, [x0, #200]
    20005574:	34000094 	cbz	w20, 20005584 <ulTaskNotifyTake+0x64>
    20005578:	f9400020 	ldr	x0, [x1]
    2000557c:	b4000175 	cbz	x21, 200055a8 <ulTaskNotifyTake+0x88>
    20005580:	b900c81f 	str	wzr, [x0, #200]
    20005584:	f9405a73 	ldr	x19, [x19, #176]
    20005588:	f9400260 	ldr	x0, [x19]
    2000558c:	3903301f 	strb	wzr, [x0, #204]
    20005590:	97fff4ac 	bl	20002840 <vPortExitCritical>
    20005594:	f94013f5 	ldr	x21, [sp, #32]
    20005598:	2a1403e0 	mov	w0, w20
    2000559c:	a94153f3 	ldp	x19, x20, [sp, #16]
    200055a0:	a8c37bfd 	ldp	x29, x30, [sp], #48
    200055a4:	d65f03c0 	ret
    200055a8:	51000681 	sub	w1, w20, #0x1
    200055ac:	b900c801 	str	w1, [x0, #200]
    200055b0:	17fffff5 	b	20005584 <ulTaskNotifyTake+0x64>
    200055b4:	aa1403e0 	mov	x0, x20
    200055b8:	97fffad2 	bl	20004100 <prvAddCurrentTaskToDelayedList.isra.0>
    200055bc:	d4000001 	svc	#0x0
    200055c0:	17ffffe8 	b	20005560 <ulTaskNotifyTake+0x40>
    200055c4:	d503201f 	nop
    200055c8:	d503201f 	nop
    200055cc:	d503201f 	nop

00000000200055d0 <xTaskNotifyWait>:
    200055d0:	a9bc7bfd 	stp	x29, x30, [sp, #-64]!
    200055d4:	910003fd 	mov	x29, sp
    200055d8:	a90153f3 	stp	x19, x20, [sp, #16]
    200055dc:	2a0003f4 	mov	w20, w0
    200055e0:	d0000013 	adrp	x19, 20007000 <pt_config>
    200055e4:	a9025bf5 	stp	x21, x22, [sp, #32]
    200055e8:	2a0103f5 	mov	w21, w1
    200055ec:	aa0203f6 	mov	x22, x2
    200055f0:	f9001bf7 	str	x23, [sp, #48]
    200055f4:	aa0303f7 	mov	x23, x3
    200055f8:	97fff4f6 	bl	200029d0 <vPortEnterCritical>
    200055fc:	f9405a65 	ldr	x5, [x19, #176]
    20005600:	f94000a0 	ldr	x0, [x5]
    20005604:	39433004 	ldrb	w4, [x0, #204]
    20005608:	12001c84 	and	w4, w4, #0xff
    2000560c:	7100089f 	cmp	w4, #0x2
    20005610:	54000120 	b.eq	20005634 <xTaskNotifyWait+0x64>  // b.none
    20005614:	f94000a0 	ldr	x0, [x5]
    20005618:	52800021 	mov	w1, #0x1                   	// #1
    2000561c:	b940c802 	ldr	w2, [x0, #200]
    20005620:	0a340054 	bic	w20, w2, w20
    20005624:	b900c814 	str	w20, [x0, #200]
    20005628:	f94000a0 	ldr	x0, [x5]
    2000562c:	39033001 	strb	w1, [x0, #204]
    20005630:	b50003d7 	cbnz	x23, 200056a8 <xTaskNotifyWait+0xd8>
    20005634:	97fff483 	bl	20002840 <vPortExitCritical>
    20005638:	97fff4e6 	bl	200029d0 <vPortEnterCritical>
    2000563c:	b40000b6 	cbz	x22, 20005650 <xTaskNotifyWait+0x80>
    20005640:	f9405a60 	ldr	x0, [x19, #176]
    20005644:	f9400000 	ldr	x0, [x0]
    20005648:	b940c800 	ldr	w0, [x0, #200]
    2000564c:	b90002c0 	str	w0, [x22]
    20005650:	f9405a60 	ldr	x0, [x19, #176]
    20005654:	d2800014 	mov	x20, #0x0                   	// #0
    20005658:	f9400001 	ldr	x1, [x0]
    2000565c:	39433022 	ldrb	w2, [x1, #204]
    20005660:	12001c42 	and	w2, w2, #0xff
    20005664:	7100085f 	cmp	w2, #0x2
    20005668:	540000c1 	b.ne	20005680 <xTaskNotifyWait+0xb0>  // b.any
    2000566c:	f9400000 	ldr	x0, [x0]
    20005670:	d2800034 	mov	x20, #0x1                   	// #1
    20005674:	b940c801 	ldr	w1, [x0, #200]
    20005678:	0a350035 	bic	w21, w1, w21
    2000567c:	b900c815 	str	w21, [x0, #200]
    20005680:	f9405a73 	ldr	x19, [x19, #176]
    20005684:	f9400260 	ldr	x0, [x19]
    20005688:	3903301f 	strb	wzr, [x0, #204]
    2000568c:	97fff46d 	bl	20002840 <vPortExitCritical>
    20005690:	a9425bf5 	ldp	x21, x22, [sp, #32]
    20005694:	aa1403e0 	mov	x0, x20
    20005698:	a94153f3 	ldp	x19, x20, [sp, #16]
    2000569c:	f9401bf7 	ldr	x23, [sp, #48]
    200056a0:	a8c47bfd 	ldp	x29, x30, [sp], #64
    200056a4:	d65f03c0 	ret
    200056a8:	aa1703e0 	mov	x0, x23
    200056ac:	97fffa95 	bl	20004100 <prvAddCurrentTaskToDelayedList.isra.0>
    200056b0:	d4000001 	svc	#0x0
    200056b4:	17ffffe0 	b	20005634 <xTaskNotifyWait+0x64>
    200056b8:	d503201f 	nop
    200056bc:	d503201f 	nop

00000000200056c0 <xTaskGenericNotify>:
    200056c0:	a9bd7bfd 	stp	x29, x30, [sp, #-48]!
    200056c4:	910003fd 	mov	x29, sp
    200056c8:	a9025bf5 	stp	x21, x22, [sp, #32]
    200056cc:	aa0303f5 	mov	x21, x3
    200056d0:	2a0103f6 	mov	w22, w1
    200056d4:	a90153f3 	stp	x19, x20, [sp, #16]
    200056d8:	aa0003f3 	mov	x19, x0
    200056dc:	2a0203f4 	mov	w20, w2
    200056e0:	97fff4bc 	bl	200029d0 <vPortEnterCritical>
    200056e4:	b4000075 	cbz	x21, 200056f0 <xTaskGenericNotify+0x30>
    200056e8:	b940ca60 	ldr	w0, [x19, #200]
    200056ec:	b90002a0 	str	w0, [x21]
    200056f0:	39433260 	ldrb	w0, [x19, #204]
    200056f4:	52800042 	mov	w2, #0x2                   	// #2
    200056f8:	71000e9f 	cmp	w20, #0x3
    200056fc:	39033262 	strb	w2, [x19, #204]
    20005700:	12001c00 	and	w0, w0, #0xff
    20005704:	540002e0 	b.eq	20005760 <xTaskGenericNotify+0xa0>  // b.none
    20005708:	54000228 	b.hi	2000574c <xTaskGenericNotify+0x8c>  // b.pmore
    2000570c:	7100069f 	cmp	w20, #0x1
    20005710:	54000620 	b.eq	200057d4 <xTaskGenericNotify+0x114>  // b.none
    20005714:	71000a9f 	cmp	w20, #0x2
    20005718:	54000081 	b.ne	20005728 <xTaskGenericNotify+0x68>  // b.any
    2000571c:	b940ca61 	ldr	w1, [x19, #200]
    20005720:	11000421 	add	w1, w1, #0x1
    20005724:	b900ca61 	str	w1, [x19, #200]
    20005728:	7100041f 	cmp	w0, #0x1
    2000572c:	54000200 	b.eq	2000576c <xTaskGenericNotify+0xac>  // b.none
    20005730:	d2800034 	mov	x20, #0x1                   	// #1
    20005734:	97fff443 	bl	20002840 <vPortExitCritical>
    20005738:	a9425bf5 	ldp	x21, x22, [sp, #32]
    2000573c:	aa1403e0 	mov	x0, x20
    20005740:	a94153f3 	ldp	x19, x20, [sp, #16]
    20005744:	a8c37bfd 	ldp	x29, x30, [sp], #48
    20005748:	d65f03c0 	ret
    2000574c:	7100129f 	cmp	w20, #0x4
    20005750:	54fffec1 	b.ne	20005728 <xTaskGenericNotify+0x68>  // b.any
    20005754:	7100081f 	cmp	w0, #0x2
    20005758:	d2800014 	mov	x20, #0x0                   	// #0
    2000575c:	54fffec0 	b.eq	20005734 <xTaskGenericNotify+0x74>  // b.none
    20005760:	7100041f 	cmp	w0, #0x1
    20005764:	b900ca76 	str	w22, [x19, #200]
    20005768:	54fffe41 	b.ne	20005730 <xTaskGenericNotify+0x70>  // b.any
    2000576c:	91002274 	add	x20, x19, #0x8
    20005770:	aa1403e0 	mov	x0, x20
    20005774:	97fff69f 	bl	200031f0 <uxListRemove>
    20005778:	f9402e64 	ldr	x4, [x19, #88]
    2000577c:	f0000002 	adrp	x2, 20008000 <timer_tick>
    20005780:	911d0042 	add	x2, x2, #0x740
    20005784:	d2800023 	mov	x3, #0x1                   	// #1
    20005788:	91018040 	add	x0, x2, #0x60
    2000578c:	f9400445 	ldr	x5, [x2, #8]
    20005790:	aa1403e1 	mov	x1, x20
    20005794:	9ac42063 	lsl	x3, x3, x4
    20005798:	8b040884 	add	x4, x4, x4, lsl #2
    2000579c:	aa050063 	orr	x3, x3, x5
    200057a0:	8b040c00 	add	x0, x0, x4, lsl #3
    200057a4:	f9000443 	str	x3, [x2, #8]
    200057a8:	97fff66e 	bl	20003160 <vListInsertEnd>
    200057ac:	d0000000 	adrp	x0, 20007000 <pt_config>
    200057b0:	f9402e61 	ldr	x1, [x19, #88]
    200057b4:	f9405800 	ldr	x0, [x0, #176]
    200057b8:	f9400000 	ldr	x0, [x0]
    200057bc:	f9402c00 	ldr	x0, [x0, #88]
    200057c0:	eb00003f 	cmp	x1, x0
    200057c4:	54fffb69 	b.ls	20005730 <xTaskGenericNotify+0x70>  // b.plast
    200057c8:	d4000001 	svc	#0x0
    200057cc:	d2800034 	mov	x20, #0x1                   	// #1
    200057d0:	17ffffd9 	b	20005734 <xTaskGenericNotify+0x74>
    200057d4:	b940ca61 	ldr	w1, [x19, #200]
    200057d8:	2a160021 	orr	w1, w1, w22
    200057dc:	b900ca61 	str	w1, [x19, #200]
    200057e0:	17ffffd2 	b	20005728 <xTaskGenericNotify+0x68>
    200057e4:	d503201f 	nop
    200057e8:	d503201f 	nop
    200057ec:	d503201f 	nop

00000000200057f0 <xTaskGenericNotifyFromISR>:
    200057f0:	a9bc7bfd 	stp	x29, x30, [sp, #-64]!
    200057f4:	910003fd 	mov	x29, sp
    200057f8:	a90153f3 	stp	x19, x20, [sp, #16]
    200057fc:	aa0003f3 	mov	x19, x0
    20005800:	2a0203f4 	mov	w20, w2
    20005804:	a9025bf5 	stp	x21, x22, [sp, #32]
    20005808:	aa0303f5 	mov	x21, x3
    2000580c:	a90363f7 	stp	x23, x24, [sp, #48]
    20005810:	2a0103f7 	mov	w23, w1
    20005814:	aa0403f8 	mov	x24, x4
    20005818:	97fff45a 	bl	20002980 <uxPortSetInterruptMask>
    2000581c:	aa0003f6 	mov	x22, x0
    20005820:	b4000075 	cbz	x21, 2000582c <xTaskGenericNotifyFromISR+0x3c>
    20005824:	b940ca60 	ldr	w0, [x19, #200]
    20005828:	b90002a0 	str	w0, [x21]
    2000582c:	39433262 	ldrb	w2, [x19, #204]
    20005830:	52800040 	mov	w0, #0x2                   	// #2
    20005834:	71000e9f 	cmp	w20, #0x3
    20005838:	39033260 	strb	w0, [x19, #204]
    2000583c:	12001c42 	and	w2, w2, #0xff
    20005840:	54000320 	b.eq	200058a4 <xTaskGenericNotifyFromISR+0xb4>  // b.none
    20005844:	54000268 	b.hi	20005890 <xTaskGenericNotifyFromISR+0xa0>  // b.pmore
    20005848:	7100069f 	cmp	w20, #0x1
    2000584c:	540005e0 	b.eq	20005908 <xTaskGenericNotifyFromISR+0x118>  // b.none
    20005850:	71000a9f 	cmp	w20, #0x2
    20005854:	54000081 	b.ne	20005864 <xTaskGenericNotifyFromISR+0x74>  // b.any
    20005858:	b940ca60 	ldr	w0, [x19, #200]
    2000585c:	11000400 	add	w0, w0, #0x1
    20005860:	b900ca60 	str	w0, [x19, #200]
    20005864:	7100045f 	cmp	w2, #0x1
    20005868:	54000240 	b.eq	200058b0 <xTaskGenericNotifyFromISR+0xc0>  // b.none
    2000586c:	d2800034 	mov	x20, #0x1                   	// #1
    20005870:	aa1603e0 	mov	x0, x22
    20005874:	97fff433 	bl	20002940 <vPortClearInterruptMask>
    20005878:	a9425bf5 	ldp	x21, x22, [sp, #32]
    2000587c:	aa1403e0 	mov	x0, x20
    20005880:	a94153f3 	ldp	x19, x20, [sp, #16]
    20005884:	a94363f7 	ldp	x23, x24, [sp, #48]
    20005888:	a8c47bfd 	ldp	x29, x30, [sp], #64
    2000588c:	d65f03c0 	ret
    20005890:	7100129f 	cmp	w20, #0x4
    20005894:	54fffe81 	b.ne	20005864 <xTaskGenericNotifyFromISR+0x74>  // b.any
    20005898:	7100085f 	cmp	w2, #0x2
    2000589c:	d2800014 	mov	x20, #0x0                   	// #0
    200058a0:	54fffe80 	b.eq	20005870 <xTaskGenericNotifyFromISR+0x80>  // b.none
    200058a4:	7100045f 	cmp	w2, #0x1
    200058a8:	b900ca77 	str	w23, [x19, #200]
    200058ac:	54fffe01 	b.ne	2000586c <xTaskGenericNotifyFromISR+0x7c>  // b.any
    200058b0:	f0000015 	adrp	x21, 20008000 <timer_tick>
    200058b4:	911d02b4 	add	x20, x21, #0x740
    200058b8:	f9411a80 	ldr	x0, [x20, #560]
    200058bc:	b40002e0 	cbz	x0, 20005918 <xTaskGenericNotifyFromISR+0x128>
    200058c0:	9107c280 	add	x0, x20, #0x1f0
    200058c4:	9100c261 	add	x1, x19, #0x30
    200058c8:	97fff626 	bl	20003160 <vListInsertEnd>
    200058cc:	d0000000 	adrp	x0, 20007000 <pt_config>
    200058d0:	f9402e61 	ldr	x1, [x19, #88]
    200058d4:	f9405800 	ldr	x0, [x0, #176]
    200058d8:	f9400000 	ldr	x0, [x0]
    200058dc:	f9402c00 	ldr	x0, [x0, #88]
    200058e0:	eb00003f 	cmp	x1, x0
    200058e4:	54fffc49 	b.ls	2000586c <xTaskGenericNotifyFromISR+0x7c>  // b.plast
    200058e8:	b4000078 	cbz	x24, 200058f4 <xTaskGenericNotifyFromISR+0x104>
    200058ec:	d2800020 	mov	x0, #0x1                   	// #1
    200058f0:	f9000300 	str	x0, [x24]
    200058f4:	911d02b5 	add	x21, x21, #0x740
    200058f8:	d2800020 	mov	x0, #0x1                   	// #1
    200058fc:	d2800034 	mov	x20, #0x1                   	// #1
    20005900:	f90126a0 	str	x0, [x21, #584]
    20005904:	17ffffdb 	b	20005870 <xTaskGenericNotifyFromISR+0x80>
    20005908:	b940ca60 	ldr	w0, [x19, #200]
    2000590c:	2a170000 	orr	w0, w0, w23
    20005910:	b900ca60 	str	w0, [x19, #200]
    20005914:	17ffffd4 	b	20005864 <xTaskGenericNotifyFromISR+0x74>
    20005918:	91002277 	add	x23, x19, #0x8
    2000591c:	aa1703e0 	mov	x0, x23
    20005920:	97fff634 	bl	200031f0 <uxListRemove>
    20005924:	f9402e63 	ldr	x3, [x19, #88]
    20005928:	d2800022 	mov	x2, #0x1                   	// #1
    2000592c:	91018280 	add	x0, x20, #0x60
    20005930:	aa1703e1 	mov	x1, x23
    20005934:	f9400684 	ldr	x4, [x20, #8]
    20005938:	9ac32042 	lsl	x2, x2, x3
    2000593c:	8b030863 	add	x3, x3, x3, lsl #2
    20005940:	aa040042 	orr	x2, x2, x4
    20005944:	8b030c00 	add	x0, x0, x3, lsl #3
    20005948:	f9000682 	str	x2, [x20, #8]
    2000594c:	97fff605 	bl	20003160 <vListInsertEnd>
    20005950:	17ffffdf 	b	200058cc <xTaskGenericNotifyFromISR+0xdc>
    20005954:	d503201f 	nop
    20005958:	d503201f 	nop
    2000595c:	d503201f 	nop

0000000020005960 <vTaskNotifyGiveFromISR>:
    20005960:	a9bc7bfd 	stp	x29, x30, [sp, #-64]!
    20005964:	910003fd 	mov	x29, sp
    20005968:	a90153f3 	stp	x19, x20, [sp, #16]
    2000596c:	aa0003f3 	mov	x19, x0
    20005970:	a9025bf5 	stp	x21, x22, [sp, #32]
    20005974:	aa0103f5 	mov	x21, x1
    20005978:	97fff402 	bl	20002980 <uxPortSetInterruptMask>
    2000597c:	52800043 	mov	w3, #0x2                   	// #2
    20005980:	39433262 	ldrb	w2, [x19, #204]
    20005984:	aa0003f4 	mov	x20, x0
    20005988:	39033263 	strb	w3, [x19, #204]
    2000598c:	b940ca60 	ldr	w0, [x19, #200]
    20005990:	12001c42 	and	w2, w2, #0xff
    20005994:	7100045f 	cmp	w2, #0x1
    20005998:	11000400 	add	w0, w0, #0x1
    2000599c:	b900ca60 	str	w0, [x19, #200]
    200059a0:	540000c0 	b.eq	200059b8 <vTaskNotifyGiveFromISR+0x58>  // b.none
    200059a4:	a9425bf5 	ldp	x21, x22, [sp, #32]
    200059a8:	aa1403e0 	mov	x0, x20
    200059ac:	a94153f3 	ldp	x19, x20, [sp, #16]
    200059b0:	a8c47bfd 	ldp	x29, x30, [sp], #64
    200059b4:	17fff3e3 	b	20002940 <vPortClearInterruptMask>
    200059b8:	a90363f7 	stp	x23, x24, [sp, #48]
    200059bc:	f0000017 	adrp	x23, 20008000 <timer_tick>
    200059c0:	911d02f6 	add	x22, x23, #0x740
    200059c4:	f9411ac0 	ldr	x0, [x22, #560]
    200059c8:	b40002e0 	cbz	x0, 20005a24 <vTaskNotifyGiveFromISR+0xc4>
    200059cc:	9107c2c0 	add	x0, x22, #0x1f0
    200059d0:	9100c261 	add	x1, x19, #0x30
    200059d4:	97fff5e3 	bl	20003160 <vListInsertEnd>
    200059d8:	d0000000 	adrp	x0, 20007000 <pt_config>
    200059dc:	f9402e61 	ldr	x1, [x19, #88]
    200059e0:	f9405800 	ldr	x0, [x0, #176]
    200059e4:	f9400000 	ldr	x0, [x0]
    200059e8:	f9402c00 	ldr	x0, [x0, #88]
    200059ec:	eb00003f 	cmp	x1, x0
    200059f0:	54000449 	b.ls	20005a78 <vTaskNotifyGiveFromISR+0x118>  // b.plast
    200059f4:	b4000075 	cbz	x21, 20005a00 <vTaskNotifyGiveFromISR+0xa0>
    200059f8:	d2800020 	mov	x0, #0x1                   	// #1
    200059fc:	f90002a0 	str	x0, [x21]
    20005a00:	911d02f7 	add	x23, x23, #0x740
    20005a04:	d2800020 	mov	x0, #0x1                   	// #1
    20005a08:	a9425bf5 	ldp	x21, x22, [sp, #32]
    20005a0c:	f90126e0 	str	x0, [x23, #584]
    20005a10:	aa1403e0 	mov	x0, x20
    20005a14:	a94153f3 	ldp	x19, x20, [sp, #16]
    20005a18:	a94363f7 	ldp	x23, x24, [sp, #48]
    20005a1c:	a8c47bfd 	ldp	x29, x30, [sp], #64
    20005a20:	17fff3c8 	b	20002940 <vPortClearInterruptMask>
    20005a24:	91002278 	add	x24, x19, #0x8
    20005a28:	aa1803e0 	mov	x0, x24
    20005a2c:	97fff5f1 	bl	200031f0 <uxListRemove>
    20005a30:	f9402e63 	ldr	x3, [x19, #88]
    20005a34:	d2800022 	mov	x2, #0x1                   	// #1
    20005a38:	910182c0 	add	x0, x22, #0x60
    20005a3c:	aa1803e1 	mov	x1, x24
    20005a40:	f94006c4 	ldr	x4, [x22, #8]
    20005a44:	9ac32042 	lsl	x2, x2, x3
    20005a48:	8b030863 	add	x3, x3, x3, lsl #2
    20005a4c:	aa040042 	orr	x2, x2, x4
    20005a50:	8b030c00 	add	x0, x0, x3, lsl #3
    20005a54:	f90006c2 	str	x2, [x22, #8]
    20005a58:	97fff5c2 	bl	20003160 <vListInsertEnd>
    20005a5c:	d0000000 	adrp	x0, 20007000 <pt_config>
    20005a60:	f9402e61 	ldr	x1, [x19, #88]
    20005a64:	f9405800 	ldr	x0, [x0, #176]
    20005a68:	f9400000 	ldr	x0, [x0]
    20005a6c:	f9402c00 	ldr	x0, [x0, #88]
    20005a70:	eb00003f 	cmp	x1, x0
    20005a74:	54fffc08 	b.hi	200059f4 <vTaskNotifyGiveFromISR+0x94>  // b.pmore
    20005a78:	a9425bf5 	ldp	x21, x22, [sp, #32]
    20005a7c:	aa1403e0 	mov	x0, x20
    20005a80:	a94153f3 	ldp	x19, x20, [sp, #16]
    20005a84:	a94363f7 	ldp	x23, x24, [sp, #48]
    20005a88:	a8c47bfd 	ldp	x29, x30, [sp], #64
    20005a8c:	17fff3ad 	b	20002940 <vPortClearInterruptMask>

0000000020005a90 <xTaskNotifyStateClear>:
    20005a90:	a9be7bfd 	stp	x29, x30, [sp, #-32]!
    20005a94:	910003fd 	mov	x29, sp
    20005a98:	a90153f3 	stp	x19, x20, [sp, #16]
    20005a9c:	aa0003f3 	mov	x19, x0
    20005aa0:	b40001c0 	cbz	x0, 20005ad8 <xTaskNotifyStateClear+0x48>
    20005aa4:	d2800014 	mov	x20, #0x0                   	// #0
    20005aa8:	97fff3ca 	bl	200029d0 <vPortEnterCritical>
    20005aac:	39433261 	ldrb	w1, [x19, #204]
    20005ab0:	12001c21 	and	w1, w1, #0xff
    20005ab4:	7100083f 	cmp	w1, #0x2
    20005ab8:	54000061 	b.ne	20005ac4 <xTaskNotifyStateClear+0x34>  // b.any
    20005abc:	d2800034 	mov	x20, #0x1                   	// #1
    20005ac0:	3903327f 	strb	wzr, [x19, #204]
    20005ac4:	97fff35f 	bl	20002840 <vPortExitCritical>
    20005ac8:	aa1403e0 	mov	x0, x20
    20005acc:	a94153f3 	ldp	x19, x20, [sp, #16]
    20005ad0:	a8c27bfd 	ldp	x29, x30, [sp], #32
    20005ad4:	d65f03c0 	ret
    20005ad8:	d0000000 	adrp	x0, 20007000 <pt_config>
    20005adc:	f9405800 	ldr	x0, [x0, #176]
    20005ae0:	f9400013 	ldr	x19, [x0]
    20005ae4:	17fffff0 	b	20005aa4 <xTaskNotifyStateClear+0x14>
    20005ae8:	d503201f 	nop
    20005aec:	d503201f 	nop

0000000020005af0 <ulTaskNotifyValueClear>:
    20005af0:	a9bd7bfd 	stp	x29, x30, [sp, #-48]!
    20005af4:	910003fd 	mov	x29, sp
    20005af8:	a90153f3 	stp	x19, x20, [sp, #16]
    20005afc:	2a0103f4 	mov	w20, w1
    20005b00:	f90013f5 	str	x21, [sp, #32]
    20005b04:	b4000200 	cbz	x0, 20005b44 <ulTaskNotifyValueClear+0x54>
    20005b08:	aa0003f3 	mov	x19, x0
    20005b0c:	d0000015 	adrp	x21, 20007000 <pt_config>
    20005b10:	97fff3b0 	bl	200029d0 <vPortEnterCritical>
    20005b14:	f9405aa0 	ldr	x0, [x21, #176]
    20005b18:	f9400000 	ldr	x0, [x0]
    20005b1c:	b940c815 	ldr	w21, [x0, #200]
    20005b20:	b940ca60 	ldr	w0, [x19, #200]
    20005b24:	0a340014 	bic	w20, w0, w20
    20005b28:	b900ca74 	str	w20, [x19, #200]
    20005b2c:	97fff345 	bl	20002840 <vPortExitCritical>
    20005b30:	a94153f3 	ldp	x19, x20, [sp, #16]
    20005b34:	2a1503e0 	mov	w0, w21
    20005b38:	f94013f5 	ldr	x21, [sp, #32]
    20005b3c:	a8c37bfd 	ldp	x29, x30, [sp], #48
    20005b40:	d65f03c0 	ret
    20005b44:	d0000015 	adrp	x21, 20007000 <pt_config>
    20005b48:	f9405aa0 	ldr	x0, [x21, #176]
    20005b4c:	f9400013 	ldr	x19, [x0]
    20005b50:	17fffff0 	b	20005b10 <ulTaskNotifyValueClear+0x20>
	...

0000000020005b60 <prvCheckForValidListAndQueue>:
    20005b60:	a9bd7bfd 	stp	x29, x30, [sp, #-48]!
    20005b64:	910003fd 	mov	x29, sp
    20005b68:	a90153f3 	stp	x19, x20, [sp, #16]
    20005b6c:	f0000013 	adrp	x19, 20008000 <timer_tick>
    20005b70:	97fff398 	bl	200029d0 <vPortEnterCritical>
    20005b74:	f944ce60 	ldr	x0, [x19, #2456]
    20005b78:	b4000080 	cbz	x0, 20005b88 <prvCheckForValidListAndQueue+0x28>
    20005b7c:	a94153f3 	ldp	x19, x20, [sp, #16]
    20005b80:	a8c37bfd 	ldp	x29, x30, [sp], #48
    20005b84:	17fff32f 	b	20002840 <vPortExitCritical>
    20005b88:	91266274 	add	x20, x19, #0x998
    20005b8c:	a9025bf5 	stp	x21, x22, [sp, #32]
    20005b90:	91002296 	add	x22, x20, #0x8
    20005b94:	9100c295 	add	x21, x20, #0x30
    20005b98:	aa1603e0 	mov	x0, x22
    20005b9c:	97fff565 	bl	20003130 <vListInitialise>
    20005ba0:	aa1503e0 	mov	x0, x21
    20005ba4:	97fff563 	bl	20003130 <vListInitialise>
    20005ba8:	52800002 	mov	w2, #0x0                   	// #0
    20005bac:	d2800301 	mov	x1, #0x18                  	// #24
    20005bb0:	a905d696 	stp	x22, x21, [x20, #88]
    20005bb4:	d28000a0 	mov	x0, #0x5                   	// #5
    20005bb8:	97fff646 	bl	200034d0 <xQueueGenericCreate>
    20005bbc:	a9425bf5 	ldp	x21, x22, [sp, #32]
    20005bc0:	f904ce60 	str	x0, [x19, #2456]
    20005bc4:	a94153f3 	ldp	x19, x20, [sp, #16]
    20005bc8:	a8c37bfd 	ldp	x29, x30, [sp], #48
    20005bcc:	17fff31d 	b	20002840 <vPortExitCritical>

0000000020005bd0 <xTimerCreateTimerTask>:
    20005bd0:	a9bf7bfd 	stp	x29, x30, [sp, #-16]!
    20005bd4:	910003fd 	mov	x29, sp
    20005bd8:	97ffffe2 	bl	20005b60 <prvCheckForValidListAndQueue>
    20005bdc:	f0000000 	adrp	x0, 20008000 <timer_tick>
    20005be0:	91266005 	add	x5, x0, #0x998
    20005be4:	f944cc00 	ldr	x0, [x0, #2456]
    20005be8:	b4000160 	cbz	x0, 20005c14 <xTimerCreateTimerTask+0x44>
    20005bec:	b0000001 	adrp	x1, 20006000 <prvTimerTask+0x200>
    20005bf0:	90000000 	adrp	x0, 20005000 <vTaskSetTimeOutState+0x10>
    20005bf4:	a8c17bfd 	ldp	x29, x30, [sp], #16
    20005bf8:	9101a0a5 	add	x5, x5, #0x68
    20005bfc:	9111a021 	add	x1, x1, #0x468
    20005c00:	91380000 	add	x0, x0, #0xe00
    20005c04:	d28000e4 	mov	x4, #0x7                   	// #7
    20005c08:	d2800003 	mov	x3, #0x0                   	// #0
    20005c0c:	52803202 	mov	w2, #0x190                 	// #400
    20005c10:	17fff990 	b	20004250 <xTaskCreate>
    20005c14:	d2800000 	mov	x0, #0x0                   	// #0
    20005c18:	a8c17bfd 	ldp	x29, x30, [sp], #16
    20005c1c:	d65f03c0 	ret

0000000020005c20 <xTimerCreate>:
    20005c20:	a9bc7bfd 	stp	x29, x30, [sp, #-64]!
    20005c24:	910003fd 	mov	x29, sp
    20005c28:	a90363f7 	stp	x23, x24, [sp, #48]
    20005c2c:	aa0003f7 	mov	x23, x0
    20005c30:	d2800a00 	mov	x0, #0x50                  	// #80
    20005c34:	aa0103f8 	mov	x24, x1
    20005c38:	a90153f3 	stp	x19, x20, [sp, #16]
    20005c3c:	aa0203f4 	mov	x20, x2
    20005c40:	a9025bf5 	stp	x21, x22, [sp, #32]
    20005c44:	aa0303f6 	mov	x22, x3
    20005c48:	aa0403f5 	mov	x21, x4
    20005c4c:	94000179 	bl	20006230 <pvPortMalloc>
    20005c50:	aa0003f3 	mov	x19, x0
    20005c54:	b4000180 	cbz	x0, 20005c84 <xTimerCreate+0x64>
    20005c58:	3901201f 	strb	wzr, [x0, #72]
    20005c5c:	97ffffc1 	bl	20005b60 <prvCheckForValidListAndQueue>
    20005c60:	91002260 	add	x0, x19, #0x8
    20005c64:	f9000277 	str	x23, [x19]
    20005c68:	a9035a78 	stp	x24, x22, [x19, #48]
    20005c6c:	f9002275 	str	x21, [x19, #64]
    20005c70:	97fff538 	bl	20003150 <vListInitialiseItem>
    20005c74:	b4000094 	cbz	x20, 20005c84 <xTimerCreate+0x64>
    20005c78:	39412260 	ldrb	w0, [x19, #72]
    20005c7c:	321e0000 	orr	w0, w0, #0x4
    20005c80:	39012260 	strb	w0, [x19, #72]
    20005c84:	a9425bf5 	ldp	x21, x22, [sp, #32]
    20005c88:	aa1303e0 	mov	x0, x19
    20005c8c:	a94153f3 	ldp	x19, x20, [sp, #16]
    20005c90:	a94363f7 	ldp	x23, x24, [sp, #48]
    20005c94:	a8c47bfd 	ldp	x29, x30, [sp], #64
    20005c98:	d65f03c0 	ret
    20005c9c:	d503201f 	nop

0000000020005ca0 <xTimerGenericCommand>:
    20005ca0:	a9bc7bfd 	stp	x29, x30, [sp, #-64]!
    20005ca4:	910003fd 	mov	x29, sp
    20005ca8:	a90153f3 	stp	x19, x20, [sp, #16]
    20005cac:	f0000014 	adrp	x20, 20008000 <timer_tick>
    20005cb0:	f944ce86 	ldr	x6, [x20, #2456]
    20005cb4:	b4000326 	cbz	x6, 20005d18 <xTimerGenericCommand+0x78>
    20005cb8:	f100143f 	cmp	x1, #0x5
    20005cbc:	a9028be1 	stp	x1, x2, [sp, #40]
    20005cc0:	f9001fe0 	str	x0, [sp, #56]
    20005cc4:	540001ac 	b.gt	20005cf8 <xTimerGenericCommand+0x58>
    20005cc8:	aa0403f3 	mov	x19, x4
    20005ccc:	97fffd2d 	bl	20005180 <xTaskGetSchedulerState>
    20005cd0:	f100081f 	cmp	x0, #0x2
    20005cd4:	540002a0 	b.eq	20005d28 <xTimerGenericCommand+0x88>  // b.none
    20005cd8:	9100a3e1 	add	x1, sp, #0x28
    20005cdc:	f944ce80 	ldr	x0, [x20, #2456]
    20005ce0:	d2800003 	mov	x3, #0x0                   	// #0
    20005ce4:	d2800002 	mov	x2, #0x0                   	// #0
    20005ce8:	97fff62e 	bl	200035a0 <xQueueGenericSend>
    20005cec:	a94153f3 	ldp	x19, x20, [sp, #16]
    20005cf0:	a8c47bfd 	ldp	x29, x30, [sp], #64
    20005cf4:	d65f03c0 	ret
    20005cf8:	aa0303e2 	mov	x2, x3
    20005cfc:	9100a3e1 	add	x1, sp, #0x28
    20005d00:	aa0603e0 	mov	x0, x6
    20005d04:	d2800003 	mov	x3, #0x0                   	// #0
    20005d08:	97fff6a6 	bl	200037a0 <xQueueGenericSendFromISR>
    20005d0c:	a94153f3 	ldp	x19, x20, [sp, #16]
    20005d10:	a8c47bfd 	ldp	x29, x30, [sp], #64
    20005d14:	d65f03c0 	ret
    20005d18:	a94153f3 	ldp	x19, x20, [sp, #16]
    20005d1c:	d2800000 	mov	x0, #0x0                   	// #0
    20005d20:	a8c47bfd 	ldp	x29, x30, [sp], #64
    20005d24:	d65f03c0 	ret
    20005d28:	aa1303e2 	mov	x2, x19
    20005d2c:	9100a3e1 	add	x1, sp, #0x28
    20005d30:	f944ce80 	ldr	x0, [x20, #2456]
    20005d34:	d2800003 	mov	x3, #0x0                   	// #0
    20005d38:	97fff61a 	bl	200035a0 <xQueueGenericSend>
    20005d3c:	a94153f3 	ldp	x19, x20, [sp, #16]
    20005d40:	a8c47bfd 	ldp	x29, x30, [sp], #64
    20005d44:	d65f03c0 	ret
    20005d48:	d503201f 	nop
    20005d4c:	d503201f 	nop

0000000020005d50 <prvSwitchTimerLists>:
    20005d50:	a9bd7bfd 	stp	x29, x30, [sp, #-48]!
    20005d54:	910003fd 	mov	x29, sp
    20005d58:	a90153f3 	stp	x19, x20, [sp, #16]
    20005d5c:	a9025bf5 	stp	x21, x22, [sp, #32]
    20005d60:	f0000015 	adrp	x21, 20008000 <timer_tick>
    20005d64:	912662b5 	add	x21, x21, #0x998
    20005d68:	1400000c 	b	20005d98 <prvSwitchTimerLists+0x48>
    20005d6c:	f9400c00 	ldr	x0, [x0, #24]
    20005d70:	f9400c13 	ldr	x19, [x0, #24]
    20005d74:	f9400016 	ldr	x22, [x0]
    20005d78:	91002274 	add	x20, x19, #0x8
    20005d7c:	aa1403e0 	mov	x0, x20
    20005d80:	97fff51c 	bl	200031f0 <uxListRemove>
    20005d84:	f9402261 	ldr	x1, [x19, #64]
    20005d88:	aa1303e0 	mov	x0, x19
    20005d8c:	d63f0020 	blr	x1
    20005d90:	39412260 	ldrb	w0, [x19, #72]
    20005d94:	37100140 	tbnz	w0, #2, 20005dbc <prvSwitchTimerLists+0x6c>
    20005d98:	f9402ea0 	ldr	x0, [x21, #88]
    20005d9c:	f9400001 	ldr	x1, [x0]
    20005da0:	b5fffe61 	cbnz	x1, 20005d6c <prvSwitchTimerLists+0x1c>
    20005da4:	f94032a1 	ldr	x1, [x21, #96]
    20005da8:	a94153f3 	ldp	x19, x20, [sp, #16]
    20005dac:	a90582a1 	stp	x1, x0, [x21, #88]
    20005db0:	a9425bf5 	ldp	x21, x22, [sp, #32]
    20005db4:	a8c37bfd 	ldp	x29, x30, [sp], #48
    20005db8:	d65f03c0 	ret
    20005dbc:	f9401a65 	ldr	x5, [x19, #48]
    20005dc0:	d2800004 	mov	x4, #0x0                   	// #0
    20005dc4:	d2800003 	mov	x3, #0x0                   	// #0
    20005dc8:	aa1603e2 	mov	x2, x22
    20005dcc:	d2800001 	mov	x1, #0x0                   	// #0
    20005dd0:	aa1303e0 	mov	x0, x19
    20005dd4:	8b0502c5 	add	x5, x22, x5
    20005dd8:	eb0502df 	cmp	x22, x5
    20005ddc:	540000e2 	b.cs	20005df8 <prvSwitchTimerLists+0xa8>  // b.hs, b.nlast
    20005de0:	f9402ea0 	ldr	x0, [x21, #88]
    20005de4:	aa1403e1 	mov	x1, x20
    20005de8:	f9000665 	str	x5, [x19, #8]
    20005dec:	f9001273 	str	x19, [x19, #32]
    20005df0:	97fff4e8 	bl	20003190 <vListInsert>
    20005df4:	17ffffe9 	b	20005d98 <prvSwitchTimerLists+0x48>
    20005df8:	97ffffaa 	bl	20005ca0 <xTimerGenericCommand>
    20005dfc:	17ffffe7 	b	20005d98 <prvSwitchTimerLists+0x48>

0000000020005e00 <prvTimerTask>:
    20005e00:	a9ba7bfd 	stp	x29, x30, [sp, #-96]!
    20005e04:	910003fd 	mov	x29, sp
    20005e08:	a90153f3 	stp	x19, x20, [sp, #16]
    20005e0c:	f0000013 	adrp	x19, 20008000 <timer_tick>
    20005e10:	910123f4 	add	x20, sp, #0x48
    20005e14:	91266273 	add	x19, x19, #0x998
    20005e18:	a9025bf5 	stp	x21, x22, [sp, #32]
    20005e1c:	a90363f7 	stp	x23, x24, [sp, #48]
    20005e20:	f9402e60 	ldr	x0, [x19, #88]
    20005e24:	f9400016 	ldr	x22, [x0]
    20005e28:	b4000a96 	cbz	x22, 20005f78 <prvTimerTask+0x178>
    20005e2c:	f9400c00 	ldr	x0, [x0, #24]
    20005e30:	f9400016 	ldr	x22, [x0]
    20005e34:	97fffaa3 	bl	200048c0 <vTaskSuspendAll>
    20005e38:	97fffaaa 	bl	200048e0 <xTaskGetTickCount>
    20005e3c:	f9403a61 	ldr	x1, [x19, #112]
    20005e40:	aa0003f5 	mov	x21, x0
    20005e44:	eb01001f 	cmp	x0, x1
    20005e48:	54000a43 	b.cc	20005f90 <prvTimerTask+0x190>  // b.lo, b.ul, b.last
    20005e4c:	eb0002df 	cmp	x22, x0
    20005e50:	f9003a60 	str	x0, [x19, #112]
    20005e54:	d2800002 	mov	x2, #0x0                   	// #0
    20005e58:	54000ae8 	b.hi	20005fb4 <prvTimerTask+0x1b4>  // b.pmore
    20005e5c:	97fffb3d 	bl	20004b50 <xTaskResumeAll>
    20005e60:	f9402e60 	ldr	x0, [x19, #88]
    20005e64:	f9400c00 	ldr	x0, [x0, #24]
    20005e68:	f9400c17 	ldr	x23, [x0, #24]
    20005e6c:	910022f8 	add	x24, x23, #0x8
    20005e70:	aa1803e0 	mov	x0, x24
    20005e74:	97fff4df 	bl	200031f0 <uxListRemove>
    20005e78:	394122e0 	ldrb	w0, [x23, #72]
    20005e7c:	37100fc0 	tbnz	w0, #2, 20006074 <prvTimerTask+0x274>
    20005e80:	121f7800 	and	w0, w0, #0xfffffffe
    20005e84:	390122e0 	strb	w0, [x23, #72]
    20005e88:	f94022e1 	ldr	x1, [x23, #64]
    20005e8c:	aa1703e0 	mov	x0, x23
    20005e90:	d63f0020 	blr	x1
    20005e94:	d503201f 	nop
    20005e98:	f9400260 	ldr	x0, [x19]
    20005e9c:	d2800002 	mov	x2, #0x0                   	// #0
    20005ea0:	aa1403e1 	mov	x1, x20
    20005ea4:	97fff69f 	bl	20003920 <xQueueReceive>
    20005ea8:	b4fffbc0 	cbz	x0, 20005e20 <prvTimerTask+0x20>
    20005eac:	f94027e0 	ldr	x0, [sp, #72]
    20005eb0:	b7ffff40 	tbnz	x0, #63, 20005e98 <prvTimerTask+0x98>
    20005eb4:	f9402ff5 	ldr	x21, [sp, #88]
    20005eb8:	f94016a0 	ldr	x0, [x21, #40]
    20005ebc:	b4000060 	cbz	x0, 20005ec8 <prvTimerTask+0xc8>
    20005ec0:	910022a0 	add	x0, x21, #0x8
    20005ec4:	97fff4cb 	bl	200031f0 <uxListRemove>
    20005ec8:	97fffa86 	bl	200048e0 <xTaskGetTickCount>
    20005ecc:	f9403a61 	ldr	x1, [x19, #112]
    20005ed0:	aa0003f6 	mov	x22, x0
    20005ed4:	eb01001f 	cmp	x0, x1
    20005ed8:	54000a43 	b.cc	20006020 <prvTimerTask+0x220>  // b.lo, b.ul, b.last
    20005edc:	f94027e0 	ldr	x0, [sp, #72]
    20005ee0:	f9003a76 	str	x22, [x19, #112]
    20005ee4:	f100141f 	cmp	x0, #0x5
    20005ee8:	54000a60 	b.eq	20006034 <prvTimerTask+0x234>  // b.none
    20005eec:	5400072c 	b.gt	20005fd0 <prvTimerTask+0x1d0>
    20005ef0:	f1000c1f 	cmp	x0, #0x3
    20005ef4:	54000aa0 	b.eq	20006048 <prvTimerTask+0x248>  // b.none
    20005ef8:	f100101f 	cmp	x0, #0x4
    20005efc:	54000740 	b.eq	20005fe4 <prvTimerTask+0x1e4>  // b.none
    20005f00:	f100081f 	cmp	x0, #0x2
    20005f04:	54fffca8 	b.hi	20005e98 <prvTimerTask+0x98>  // b.pmore
    20005f08:	f9401aa2 	ldr	x2, [x21, #48]
    20005f0c:	f90012b5 	str	x21, [x21, #32]
    20005f10:	f9402be0 	ldr	x0, [sp, #80]
    20005f14:	394122a1 	ldrb	w1, [x21, #72]
    20005f18:	ab020003 	adds	x3, x0, x2
    20005f1c:	9a9f37e4 	cset	x4, cs	// cs = hs, nlast
    20005f20:	eb16007f 	cmp	x3, x22
    20005f24:	32000021 	orr	w1, w1, #0x1
    20005f28:	f90006a3 	str	x3, [x21, #8]
    20005f2c:	390122a1 	strb	w1, [x21, #72]
    20005f30:	54000948 	b.hi	20006058 <prvTimerTask+0x258>  // b.pmore
    20005f34:	cb0002d6 	sub	x22, x22, x0
    20005f38:	eb16005f 	cmp	x2, x22
    20005f3c:	540006a8 	b.hi	20006010 <prvTimerTask+0x210>  // b.pmore
    20005f40:	f94022a1 	ldr	x1, [x21, #64]
    20005f44:	aa1503e0 	mov	x0, x21
    20005f48:	d63f0020 	blr	x1
    20005f4c:	394122a0 	ldrb	w0, [x21, #72]
    20005f50:	3617fa40 	tbz	w0, #2, 20005e98 <prvTimerTask+0x98>
    20005f54:	f9401aa2 	ldr	x2, [x21, #48]
    20005f58:	aa1503e0 	mov	x0, x21
    20005f5c:	d2800004 	mov	x4, #0x0                   	// #0
    20005f60:	d2800003 	mov	x3, #0x0                   	// #0
    20005f64:	d2800001 	mov	x1, #0x0                   	// #0
    20005f68:	f9402be5 	ldr	x5, [sp, #80]
    20005f6c:	8b0200a2 	add	x2, x5, x2
    20005f70:	97ffff4c 	bl	20005ca0 <xTimerGenericCommand>
    20005f74:	17ffffc9 	b	20005e98 <prvTimerTask+0x98>
    20005f78:	97fffa52 	bl	200048c0 <vTaskSuspendAll>
    20005f7c:	97fffa59 	bl	200048e0 <xTaskGetTickCount>
    20005f80:	f9403a61 	ldr	x1, [x19, #112]
    20005f84:	aa0003f5 	mov	x21, x0
    20005f88:	eb00003f 	cmp	x1, x0
    20005f8c:	540000a9 	b.ls	20005fa0 <prvTimerTask+0x1a0>  // b.plast
    20005f90:	97ffff70 	bl	20005d50 <prvSwitchTimerLists>
    20005f94:	f9003a75 	str	x21, [x19, #112]
    20005f98:	97fffaee 	bl	20004b50 <xTaskResumeAll>
    20005f9c:	17ffffbf 	b	20005e98 <prvTimerTask+0x98>
    20005fa0:	f9403260 	ldr	x0, [x19, #96]
    20005fa4:	f9003a75 	str	x21, [x19, #112]
    20005fa8:	f9400000 	ldr	x0, [x0]
    20005fac:	f100001f 	cmp	x0, #0x0
    20005fb0:	9a9f17e2 	cset	x2, eq	// eq = none
    20005fb4:	f9400260 	ldr	x0, [x19]
    20005fb8:	cb1502c1 	sub	x1, x22, x21
    20005fbc:	97fff82d 	bl	20004070 <vQueueWaitForMessageRestricted>
    20005fc0:	97fffae4 	bl	20004b50 <xTaskResumeAll>
    20005fc4:	b5fff6a0 	cbnz	x0, 20005e98 <prvTimerTask+0x98>
    20005fc8:	d4000001 	svc	#0x0
    20005fcc:	17ffffb3 	b	20005e98 <prvTimerTask+0x98>
    20005fd0:	f100201f 	cmp	x0, #0x8
    20005fd4:	540003a0 	b.eq	20006048 <prvTimerTask+0x248>  // b.none
    20005fd8:	54fff98d 	b.le	20005f08 <prvTimerTask+0x108>
    20005fdc:	f100241f 	cmp	x0, #0x9
    20005fe0:	54fff5c1 	b.ne	20005e98 <prvTimerTask+0x98>  // b.any
    20005fe4:	f9402be1 	ldr	x1, [sp, #80]
    20005fe8:	f90012b5 	str	x21, [x21, #32]
    20005fec:	394122a0 	ldrb	w0, [x21, #72]
    20005ff0:	8b160022 	add	x2, x1, x22
    20005ff4:	f9001aa1 	str	x1, [x21, #48]
    20005ff8:	eb16005f 	cmp	x2, x22
    20005ffc:	32000000 	orr	w0, w0, #0x1
    20006000:	f90006a2 	str	x2, [x21, #8]
    20006004:	390122a0 	strb	w0, [x21, #72]
    20006008:	540002e8 	b.hi	20006064 <prvTimerTask+0x264>  // b.pmore
    2000600c:	b4fff461 	cbz	x1, 20005e98 <prvTimerTask+0x98>
    20006010:	f9403260 	ldr	x0, [x19, #96]
    20006014:	910022a1 	add	x1, x21, #0x8
    20006018:	97fff45e 	bl	20003190 <vListInsert>
    2000601c:	17ffff9f 	b	20005e98 <prvTimerTask+0x98>
    20006020:	97ffff4c 	bl	20005d50 <prvSwitchTimerLists>
    20006024:	f94027e0 	ldr	x0, [sp, #72]
    20006028:	f9003a76 	str	x22, [x19, #112]
    2000602c:	f100141f 	cmp	x0, #0x5
    20006030:	54fff5e1 	b.ne	20005eec <prvTimerTask+0xec>  // b.any
    20006034:	394122a0 	ldrb	w0, [x21, #72]
    20006038:	36080320 	tbz	w0, #1, 2000609c <prvTimerTask+0x29c>
    2000603c:	121f7800 	and	w0, w0, #0xfffffffe
    20006040:	390122a0 	strb	w0, [x21, #72]
    20006044:	17ffff95 	b	20005e98 <prvTimerTask+0x98>
    20006048:	394122a0 	ldrb	w0, [x21, #72]
    2000604c:	121f7800 	and	w0, w0, #0xfffffffe
    20006050:	390122a0 	strb	w0, [x21, #72]
    20006054:	17ffff91 	b	20005e98 <prvTimerTask+0x98>
    20006058:	f100009f 	cmp	x4, #0x0
    2000605c:	fa560000 	ccmp	x0, x22, #0x0, eq	// eq = none
    20006060:	54fff708 	b.hi	20005f40 <prvTimerTask+0x140>  // b.pmore
    20006064:	f9402e60 	ldr	x0, [x19, #88]
    20006068:	910022a1 	add	x1, x21, #0x8
    2000606c:	97fff449 	bl	20003190 <vListInsert>
    20006070:	17ffff8a 	b	20005e98 <prvTimerTask+0x98>
    20006074:	f9401ae1 	ldr	x1, [x23, #48]
    20006078:	f90012f7 	str	x23, [x23, #32]
    2000607c:	8b0102c0 	add	x0, x22, x1
    20006080:	eb0002bf 	cmp	x21, x0
    20006084:	f90006e0 	str	x0, [x23, #8]
    20006088:	54000102 	b.cs	200060a8 <prvTimerTask+0x2a8>  // b.hs, b.nlast
    2000608c:	f9402e60 	ldr	x0, [x19, #88]
    20006090:	aa1803e1 	mov	x1, x24
    20006094:	97fff43f 	bl	20003190 <vListInsert>
    20006098:	17ffff7c 	b	20005e88 <prvTimerTask+0x88>
    2000609c:	aa1503e0 	mov	x0, x21
    200060a0:	94000088 	bl	200062c0 <vPortFree>
    200060a4:	17ffff7d 	b	20005e98 <prvTimerTask+0x98>
    200060a8:	cb1602b5 	sub	x21, x21, x22
    200060ac:	eb15003f 	cmp	x1, x21
    200060b0:	54000108 	b.hi	200060d0 <prvTimerTask+0x2d0>  // b.pmore
    200060b4:	aa1603e2 	mov	x2, x22
    200060b8:	d2800004 	mov	x4, #0x0                   	// #0
    200060bc:	d2800003 	mov	x3, #0x0                   	// #0
    200060c0:	d2800001 	mov	x1, #0x0                   	// #0
    200060c4:	aa1703e0 	mov	x0, x23
    200060c8:	97fffef6 	bl	20005ca0 <xTimerGenericCommand>
    200060cc:	17ffff6f 	b	20005e88 <prvTimerTask+0x88>
    200060d0:	f9403260 	ldr	x0, [x19, #96]
    200060d4:	aa1803e1 	mov	x1, x24
    200060d8:	97fff42e 	bl	20003190 <vListInsert>
    200060dc:	17ffff6b 	b	20005e88 <prvTimerTask+0x88>

00000000200060e0 <xTimerGetTimerDaemonTaskHandle>:
    200060e0:	d0000000 	adrp	x0, 20008000 <timer_tick>
    200060e4:	f9450000 	ldr	x0, [x0, #2560]
    200060e8:	d65f03c0 	ret
    200060ec:	d503201f 	nop

00000000200060f0 <xTimerGetPeriod>:
    200060f0:	f9401800 	ldr	x0, [x0, #48]
    200060f4:	d65f03c0 	ret
    200060f8:	d503201f 	nop
    200060fc:	d503201f 	nop

0000000020006100 <vTimerSetReloadMode>:
    20006100:	a9be7bfd 	stp	x29, x30, [sp, #-32]!
    20006104:	910003fd 	mov	x29, sp
    20006108:	a90153f3 	stp	x19, x20, [sp, #16]
    2000610c:	aa0103f4 	mov	x20, x1
    20006110:	aa0003f3 	mov	x19, x0
    20006114:	97fff22f 	bl	200029d0 <vPortEnterCritical>
    20006118:	b40000f4 	cbz	x20, 20006134 <vTimerSetReloadMode+0x34>
    2000611c:	39412260 	ldrb	w0, [x19, #72]
    20006120:	321e0000 	orr	w0, w0, #0x4
    20006124:	39012260 	strb	w0, [x19, #72]
    20006128:	a94153f3 	ldp	x19, x20, [sp, #16]
    2000612c:	a8c27bfd 	ldp	x29, x30, [sp], #32
    20006130:	17fff1c4 	b	20002840 <vPortExitCritical>
    20006134:	39412260 	ldrb	w0, [x19, #72]
    20006138:	121d7800 	and	w0, w0, #0xfffffffb
    2000613c:	12001c00 	and	w0, w0, #0xff
    20006140:	39012260 	strb	w0, [x19, #72]
    20006144:	a94153f3 	ldp	x19, x20, [sp, #16]
    20006148:	a8c27bfd 	ldp	x29, x30, [sp], #32
    2000614c:	17fff1bd 	b	20002840 <vPortExitCritical>

0000000020006150 <uxTimerGetReloadMode>:
    20006150:	a9be7bfd 	stp	x29, x30, [sp, #-32]!
    20006154:	910003fd 	mov	x29, sp
    20006158:	f9000bf3 	str	x19, [sp, #16]
    2000615c:	aa0003f3 	mov	x19, x0
    20006160:	97fff21c 	bl	200029d0 <vPortEnterCritical>
    20006164:	39412273 	ldrb	w19, [x19, #72]
    20006168:	97fff1b6 	bl	20002840 <vPortExitCritical>
    2000616c:	d3420a73 	ubfx	x19, x19, #2, #1
    20006170:	aa1303e0 	mov	x0, x19
    20006174:	f9400bf3 	ldr	x19, [sp, #16]
    20006178:	a8c27bfd 	ldp	x29, x30, [sp], #32
    2000617c:	d65f03c0 	ret

0000000020006180 <xTimerGetExpiryTime>:
    20006180:	f9400400 	ldr	x0, [x0, #8]
    20006184:	d65f03c0 	ret
    20006188:	d503201f 	nop
    2000618c:	d503201f 	nop

0000000020006190 <pcTimerGetName>:
    20006190:	f9400000 	ldr	x0, [x0]
    20006194:	d65f03c0 	ret
    20006198:	d503201f 	nop
    2000619c:	d503201f 	nop

00000000200061a0 <xTimerIsTimerActive>:
    200061a0:	a9be7bfd 	stp	x29, x30, [sp, #-32]!
    200061a4:	910003fd 	mov	x29, sp
    200061a8:	f9000bf3 	str	x19, [sp, #16]
    200061ac:	aa0003f3 	mov	x19, x0
    200061b0:	97fff208 	bl	200029d0 <vPortEnterCritical>
    200061b4:	39412273 	ldrb	w19, [x19, #72]
    200061b8:	97fff1a2 	bl	20002840 <vPortExitCritical>
    200061bc:	92400273 	and	x19, x19, #0x1
    200061c0:	aa1303e0 	mov	x0, x19
    200061c4:	f9400bf3 	ldr	x19, [sp, #16]
    200061c8:	a8c27bfd 	ldp	x29, x30, [sp], #32
    200061cc:	d65f03c0 	ret

00000000200061d0 <pvTimerGetTimerID>:
    200061d0:	a9be7bfd 	stp	x29, x30, [sp, #-32]!
    200061d4:	910003fd 	mov	x29, sp
    200061d8:	f9000bf3 	str	x19, [sp, #16]
    200061dc:	aa0003f3 	mov	x19, x0
    200061e0:	97fff1fc 	bl	200029d0 <vPortEnterCritical>
    200061e4:	f9401e73 	ldr	x19, [x19, #56]
    200061e8:	97fff196 	bl	20002840 <vPortExitCritical>
    200061ec:	aa1303e0 	mov	x0, x19
    200061f0:	f9400bf3 	ldr	x19, [sp, #16]
    200061f4:	a8c27bfd 	ldp	x29, x30, [sp], #32
    200061f8:	d65f03c0 	ret
    200061fc:	d503201f 	nop

0000000020006200 <vTimerSetTimerID>:
    20006200:	a9be7bfd 	stp	x29, x30, [sp, #-32]!
    20006204:	910003fd 	mov	x29, sp
    20006208:	a90153f3 	stp	x19, x20, [sp, #16]
    2000620c:	aa0003f3 	mov	x19, x0
    20006210:	aa0103f4 	mov	x20, x1
    20006214:	97fff1ef 	bl	200029d0 <vPortEnterCritical>
    20006218:	f9001e74 	str	x20, [x19, #56]
    2000621c:	a94153f3 	ldp	x19, x20, [sp, #16]
    20006220:	a8c27bfd 	ldp	x29, x30, [sp], #32
    20006224:	17fff187 	b	20002840 <vPortExitCritical>
	...

0000000020006230 <pvPortMalloc>:
    20006230:	a9be7bfd 	stp	x29, x30, [sp, #-32]!
    20006234:	910003fd 	mov	x29, sp
    20006238:	a90153f3 	stp	x19, x20, [sp, #16]
    2000623c:	aa0003f3 	mov	x19, x0
    20006240:	927cec00 	and	x0, x0, #0xfffffffffffffff0
    20006244:	f2400e7f 	tst	x19, #0xf
    20006248:	91004000 	add	x0, x0, #0x10
    2000624c:	9a931013 	csel	x19, x0, x19, ne	// ne = any
    20006250:	97fff99c 	bl	200048c0 <vTaskSuspendAll>
    20006254:	d0000001 	adrp	x1, 20008000 <timer_tick>
    20006258:	f9450820 	ldr	x0, [x1, #2576]
    2000625c:	b4000240 	cbz	x0, 200062a4 <pvPortMalloc+0x74>
    20006260:	91284022 	add	x2, x1, #0xa10
    20006264:	d29dfde3 	mov	x3, #0xefef                	// #61423
    20006268:	f2a00023 	movk	x3, #0x1, lsl #16
    2000626c:	f9400440 	ldr	x0, [x2, #8]
    20006270:	d2800014 	mov	x20, #0x0                   	// #0
    20006274:	8b130013 	add	x19, x0, x19
    20006278:	eb13001f 	cmp	x0, x19
    2000627c:	fa433262 	ccmp	x19, x3, #0x2, cc	// cc = lo, ul, last
    20006280:	54000088 	b.hi	20006290 <pvPortMalloc+0x60>  // b.pmore
    20006284:	f9450834 	ldr	x20, [x1, #2576]
    20006288:	f9000453 	str	x19, [x2, #8]
    2000628c:	8b000294 	add	x20, x20, x0
    20006290:	97fffa30 	bl	20004b50 <xTaskResumeAll>
    20006294:	aa1403e0 	mov	x0, x20
    20006298:	a94153f3 	ldp	x19, x20, [sp, #16]
    2000629c:	a8c27bfd 	ldp	x29, x30, [sp], #32
    200062a0:	d65f03c0 	ret
    200062a4:	d0000000 	adrp	x0, 20008000 <timer_tick>
    200062a8:	9128c000 	add	x0, x0, #0xa30
    200062ac:	f9050820 	str	x0, [x1, #2576]
    200062b0:	17ffffec 	b	20006260 <pvPortMalloc+0x30>
    200062b4:	d503201f 	nop
    200062b8:	d503201f 	nop
    200062bc:	d503201f 	nop

00000000200062c0 <vPortFree>:
    200062c0:	d65f03c0 	ret
    200062c4:	d503201f 	nop
    200062c8:	d503201f 	nop
    200062cc:	d503201f 	nop

00000000200062d0 <vPortInitialiseBlocks>:
    200062d0:	d0000000 	adrp	x0, 20008000 <timer_tick>
    200062d4:	f9050c1f 	str	xzr, [x0, #2584]
    200062d8:	d65f03c0 	ret
    200062dc:	d503201f 	nop

00000000200062e0 <xPortGetFreeHeapSize>:
    200062e0:	d0000001 	adrp	x1, 20008000 <timer_tick>
    200062e4:	d29dfe02 	mov	x2, #0xeff0                	// #61424
    200062e8:	f2a00022 	movk	x2, #0x1, lsl #16
    200062ec:	f9450c20 	ldr	x0, [x1, #2584]
    200062f0:	cb000040 	sub	x0, x2, x0
    200062f4:	d65f03c0 	ret

Disassembly of section .text.startup:

00000000200064a0 <main>:
    200064a0:	a9be7bfd 	stp	x29, x30, [sp, #-32]!
    200064a4:	910003fd 	mov	x29, sp
    200064a8:	f9000bf3 	str	x19, [sp, #16]
    200064ac:	90000013 	adrp	x19, 20006000 <prvTimerTask+0x200>
    200064b0:	910c0273 	add	x19, x19, #0x300
    200064b4:	97ffee53 	bl	20001e00 <uart_init>
    200064b8:	aa1303e0 	mov	x0, x19
    200064bc:	97ffee0d 	bl	20001cf0 <uart_puts>
    200064c0:	90000000 	adrp	x0, 20006000 <prvTimerTask+0x200>
    200064c4:	910ca000 	add	x0, x0, #0x328
    200064c8:	97ffee0a 	bl	20001cf0 <uart_puts>
    200064cc:	90000000 	adrp	x0, 20006000 <prvTimerTask+0x200>
    200064d0:	910d2000 	add	x0, x0, #0x348
    200064d4:	97ffee07 	bl	20001cf0 <uart_puts>
    200064d8:	aa1303e0 	mov	x0, x19
    200064dc:	97ffee05 	bl	20001cf0 <uart_puts>
    200064e0:	d2800101 	mov	x1, #0x8                   	// #8
    200064e4:	52800002 	mov	w2, #0x0                   	// #0
    200064e8:	d28000a0 	mov	x0, #0x5                   	// #5
    200064ec:	97fff3f9 	bl	200034d0 <xQueueGenericCreate>
    200064f0:	b0000001 	adrp	x1, 20007000 <pt_config>
    200064f4:	f9405c21 	ldr	x1, [x1, #184]
    200064f8:	f9000020 	str	x0, [x1]
    200064fc:	b40003a0 	cbz	x0, 20006570 <main+0xd0>
    20006500:	f0ffffd3 	adrp	x19, 20001000 <_freertos_vector_table>
    20006504:	912c0273 	add	x19, x19, #0xb00
    20006508:	90000001 	adrp	x1, 20006000 <prvTimerTask+0x200>
    2000650c:	d2800005 	mov	x5, #0x0                   	// #0
    20006510:	910da021 	add	x1, x1, #0x368
    20006514:	d2800024 	mov	x4, #0x1                   	// #1
    20006518:	d2800003 	mov	x3, #0x0                   	// #0
    2000651c:	52807d02 	mov	w2, #0x3e8                 	// #1000
    20006520:	aa1303e0 	mov	x0, x19
    20006524:	97fff74b 	bl	20004250 <xTaskCreate>
    20006528:	90000001 	adrp	x1, 20006000 <prvTimerTask+0x200>
    2000652c:	d2800005 	mov	x5, #0x0                   	// #0
    20006530:	910dc021 	add	x1, x1, #0x370
    20006534:	d2800044 	mov	x4, #0x2                   	// #2
    20006538:	d2800023 	mov	x3, #0x1                   	// #1
    2000653c:	52807d02 	mov	w2, #0x3e8                 	// #1000
    20006540:	aa1303e0 	mov	x0, x19
    20006544:	97fff743 	bl	20004250 <xTaskCreate>
    20006548:	90000001 	adrp	x1, 20006000 <prvTimerTask+0x200>
    2000654c:	f0ffffc0 	adrp	x0, 20001000 <_freertos_vector_table>
    20006550:	910de021 	add	x1, x1, #0x378
    20006554:	d2800005 	mov	x5, #0x0                   	// #0
    20006558:	d2800004 	mov	x4, #0x0                   	// #0
    2000655c:	d2800003 	mov	x3, #0x0                   	// #0
    20006560:	52807d02 	mov	w2, #0x3e8                 	// #1000
    20006564:	912a8000 	add	x0, x0, #0xaa0
    20006568:	97fff73a 	bl	20004250 <xTaskCreate>
    2000656c:	97fff8ad 	bl	20004820 <vTaskStartScheduler>
    20006570:	14000000 	b	20006570 <main+0xd0>
